
cv5.elf:     file format elf32-littlearm

Sections:
Idx Name          Size      VMA       LMA       File off  Algn
  0 .isr_vector   00000188  08000000  08000000  00010000  2**0
                  CONTENTS, ALLOC, LOAD, READONLY, DATA
  1 .text         000010d0  08000188  08000188  00010188  2**2
                  CONTENTS, ALLOC, LOAD, READONLY, CODE
  2 .rodata       00000000  08001258  08001258  00020004  2**0
                  CONTENTS, ALLOC, LOAD, DATA
  3 .ARM.extab    00000000  08001258  08001258  00020004  2**0
                  CONTENTS
  4 .ARM          00000000  08001258  08001258  00020004  2**0
                  CONTENTS
  5 .preinit_array 00000000  08001258  08001258  00020004  2**0
                  CONTENTS, ALLOC, LOAD, DATA
  6 .init_array   00000004  08001258  08001258  00011258  2**2
                  CONTENTS, ALLOC, LOAD, DATA
  7 .fini_array   00000004  0800125c  0800125c  0001125c  2**2
                  CONTENTS, ALLOC, LOAD, DATA
  8 .data         00000004  20000000  08001260  00020000  2**2
                  CONTENTS, ALLOC, LOAD, DATA
  9 .bss          00000020  20000004  08001264  00020004  2**2
                  ALLOC
 10 ._user_heap_stack 00000604  20000024  08001264  00020024  2**0
                  ALLOC
 11 .ARM.attributes 00000030  00000000  00000000  00020004  2**0
                  CONTENTS, READONLY
 12 .debug_info   00003171  00000000  00000000  00020034  2**0
                  CONTENTS, READONLY, DEBUGGING
 13 .debug_abbrev 00000cde  00000000  00000000  000231a5  2**0
                  CONTENTS, READONLY, DEBUGGING
 14 .debug_aranges 000003f0  00000000  00000000  00023e88  2**3
                  CONTENTS, READONLY, DEBUGGING
 15 .debug_ranges 00000378  00000000  00000000  00024278  2**3
                  CONTENTS, READONLY, DEBUGGING
 16 .debug_macro  000143c6  00000000  00000000  000245f0  2**0
                  CONTENTS, READONLY, DEBUGGING
 17 .debug_line   00002d2a  00000000  00000000  000389b6  2**0
                  CONTENTS, READONLY, DEBUGGING
 18 .debug_str    0006da48  00000000  00000000  0003b6e0  2**0
                  CONTENTS, READONLY, DEBUGGING
 19 .comment      0000007b  00000000  00000000  000a9128  2**0
                  CONTENTS, READONLY
 20 .debug_frame  00000efc  00000000  00000000  000a91a4  2**2
                  CONTENTS, READONLY, DEBUGGING

Disassembly of section .text:

08000188 <__do_global_dtors_aux>:
 8000188:	b510      	push	{r4, lr}
 800018a:	4c05      	ldr	r4, [pc, #20]	; (80001a0 <__do_global_dtors_aux+0x18>)
 800018c:	7823      	ldrb	r3, [r4, #0]
 800018e:	b933      	cbnz	r3, 800019e <__do_global_dtors_aux+0x16>
 8000190:	4b04      	ldr	r3, [pc, #16]	; (80001a4 <__do_global_dtors_aux+0x1c>)
 8000192:	b113      	cbz	r3, 800019a <__do_global_dtors_aux+0x12>
 8000194:	4804      	ldr	r0, [pc, #16]	; (80001a8 <__do_global_dtors_aux+0x20>)
 8000196:	f3af 8000 	nop.w
 800019a:	2301      	movs	r3, #1
 800019c:	7023      	strb	r3, [r4, #0]
 800019e:	bd10      	pop	{r4, pc}
 80001a0:	20000004 	.word	0x20000004
 80001a4:	00000000 	.word	0x00000000
 80001a8:	08001240 	.word	0x08001240

080001ac <frame_dummy>:
 80001ac:	b508      	push	{r3, lr}
 80001ae:	4b03      	ldr	r3, [pc, #12]	; (80001bc <frame_dummy+0x10>)
 80001b0:	b11b      	cbz	r3, 80001ba <frame_dummy+0xe>
 80001b2:	4903      	ldr	r1, [pc, #12]	; (80001c0 <frame_dummy+0x14>)
 80001b4:	4803      	ldr	r0, [pc, #12]	; (80001c4 <frame_dummy+0x18>)
 80001b6:	f3af 8000 	nop.w
 80001ba:	bd08      	pop	{r3, pc}
 80001bc:	00000000 	.word	0x00000000
 80001c0:	20000008 	.word	0x20000008
 80001c4:	08001240 	.word	0x08001240

080001c8 <__NVIC_GetPriorityGrouping>:
  \brief   Get Priority Grouping
  \details Reads the priority grouping field from the NVIC Interrupt Controller.
  \return                Priority grouping field (SCB->AIRCR [10:8] PRIGROUP field).
 */
__STATIC_INLINE uint32_t __NVIC_GetPriorityGrouping(void)
{
 80001c8:	b480      	push	{r7}
 80001ca:	af00      	add	r7, sp, #0
  return ((uint32_t)((SCB->AIRCR & SCB_AIRCR_PRIGROUP_Msk) >> SCB_AIRCR_PRIGROUP_Pos));
 80001cc:	4b04      	ldr	r3, [pc, #16]	; (80001e0 <__NVIC_GetPriorityGrouping+0x18>)
 80001ce:	68db      	ldr	r3, [r3, #12]
 80001d0:	0a1b      	lsrs	r3, r3, #8
 80001d2:	f003 0307 	and.w	r3, r3, #7
}
 80001d6:	4618      	mov	r0, r3
 80001d8:	46bd      	mov	sp, r7
 80001da:	f85d 7b04 	ldr.w	r7, [sp], #4
 80001de:	4770      	bx	lr
 80001e0:	e000ed00 	.word	0xe000ed00

080001e4 <__NVIC_EnableIRQ>:
  \details Enables a device specific interrupt in the NVIC interrupt controller.
  \param [in]      IRQn  Device specific interrupt number.
  \note    IRQn must not be negative.
 */
__STATIC_INLINE void __NVIC_EnableIRQ(IRQn_Type IRQn)
{
 80001e4:	b480      	push	{r7}
 80001e6:	b083      	sub	sp, #12
 80001e8:	af00      	add	r7, sp, #0
 80001ea:	4603      	mov	r3, r0
 80001ec:	71fb      	strb	r3, [r7, #7]
  if ((int32_t)(IRQn) >= 0)
 80001ee:	f997 3007 	ldrsb.w	r3, [r7, #7]
 80001f2:	2b00      	cmp	r3, #0
 80001f4:	db0b      	blt.n	800020e <__NVIC_EnableIRQ+0x2a>
  {
    NVIC->ISER[(((uint32_t)IRQn) >> 5UL)] = (uint32_t)(1UL << (((uint32_t)IRQn) & 0x1FUL));
 80001f6:	79fb      	ldrb	r3, [r7, #7]
 80001f8:	f003 021f 	and.w	r2, r3, #31
 80001fc:	4907      	ldr	r1, [pc, #28]	; (800021c <__NVIC_EnableIRQ+0x38>)
 80001fe:	f997 3007 	ldrsb.w	r3, [r7, #7]
 8000202:	095b      	lsrs	r3, r3, #5
 8000204:	2001      	movs	r0, #1
 8000206:	fa00 f202 	lsl.w	r2, r0, r2
 800020a:	f841 2023 	str.w	r2, [r1, r3, lsl #2]
  }
}
 800020e:	bf00      	nop
 8000210:	370c      	adds	r7, #12
 8000212:	46bd      	mov	sp, r7
 8000214:	f85d 7b04 	ldr.w	r7, [sp], #4
 8000218:	4770      	bx	lr
 800021a:	bf00      	nop
 800021c:	e000e100 	.word	0xe000e100

08000220 <__NVIC_SetPriority>:
  \param [in]      IRQn  Interrupt number.
  \param [in]  priority  Priority to set.
  \note    The priority cannot be set for every processor exception.
 */
__STATIC_INLINE void __NVIC_SetPriority(IRQn_Type IRQn, uint32_t priority)
{
 8000220:	b480      	push	{r7}
 8000222:	b083      	sub	sp, #12
 8000224:	af00      	add	r7, sp, #0
 8000226:	4603      	mov	r3, r0
 8000228:	6039      	str	r1, [r7, #0]
 800022a:	71fb      	strb	r3, [r7, #7]
  if ((int32_t)(IRQn) >= 0)
 800022c:	f997 3007 	ldrsb.w	r3, [r7, #7]
 8000230:	2b00      	cmp	r3, #0
 8000232:	db0a      	blt.n	800024a <__NVIC_SetPriority+0x2a>
  {
    NVIC->IP[((uint32_t)IRQn)]               = (uint8_t)((priority << (8U - __NVIC_PRIO_BITS)) & (uint32_t)0xFFUL);
 8000234:	683b      	ldr	r3, [r7, #0]
 8000236:	b2da      	uxtb	r2, r3
 8000238:	490c      	ldr	r1, [pc, #48]	; (800026c <__NVIC_SetPriority+0x4c>)
 800023a:	f997 3007 	ldrsb.w	r3, [r7, #7]
 800023e:	0112      	lsls	r2, r2, #4
 8000240:	b2d2      	uxtb	r2, r2
 8000242:	440b      	add	r3, r1
 8000244:	f883 2300 	strb.w	r2, [r3, #768]	; 0x300
  }
  else
  {
    SCB->SHP[(((uint32_t)IRQn) & 0xFUL)-4UL] = (uint8_t)((priority << (8U - __NVIC_PRIO_BITS)) & (uint32_t)0xFFUL);
  }
}
 8000248:	e00a      	b.n	8000260 <__NVIC_SetPriority+0x40>
    SCB->SHP[(((uint32_t)IRQn) & 0xFUL)-4UL] = (uint8_t)((priority << (8U - __NVIC_PRIO_BITS)) & (uint32_t)0xFFUL);
 800024a:	683b      	ldr	r3, [r7, #0]
 800024c:	b2da      	uxtb	r2, r3
 800024e:	4908      	ldr	r1, [pc, #32]	; (8000270 <__NVIC_SetPriority+0x50>)
 8000250:	79fb      	ldrb	r3, [r7, #7]
 8000252:	f003 030f 	and.w	r3, r3, #15
 8000256:	3b04      	subs	r3, #4
 8000258:	0112      	lsls	r2, r2, #4
 800025a:	b2d2      	uxtb	r2, r2
 800025c:	440b      	add	r3, r1
 800025e:	761a      	strb	r2, [r3, #24]
}
 8000260:	bf00      	nop
 8000262:	370c      	adds	r7, #12
 8000264:	46bd      	mov	sp, r7
 8000266:	f85d 7b04 	ldr.w	r7, [sp], #4
 800026a:	4770      	bx	lr
 800026c:	e000e100 	.word	0xe000e100
 8000270:	e000ed00 	.word	0xe000ed00

08000274 <NVIC_EncodePriority>:
  \param [in]   PreemptPriority  Preemptive priority value (starting from 0).
  \param [in]       SubPriority  Subpriority value (starting from 0).
  \return                        Encoded priority. Value can be used in the function \ref NVIC_SetPriority().
 */
__STATIC_INLINE uint32_t NVIC_EncodePriority (uint32_t PriorityGroup, uint32_t PreemptPriority, uint32_t SubPriority)
{
 8000274:	b480      	push	{r7}
 8000276:	b089      	sub	sp, #36	; 0x24
 8000278:	af00      	add	r7, sp, #0
 800027a:	60f8      	str	r0, [r7, #12]
 800027c:	60b9      	str	r1, [r7, #8]
 800027e:	607a      	str	r2, [r7, #4]
  uint32_t PriorityGroupTmp = (PriorityGroup & (uint32_t)0x07UL);   /* only values 0..7 are used          */
 8000280:	68fb      	ldr	r3, [r7, #12]
 8000282:	f003 0307 	and.w	r3, r3, #7
 8000286:	61fb      	str	r3, [r7, #28]
  uint32_t PreemptPriorityBits;
  uint32_t SubPriorityBits;

  PreemptPriorityBits = ((7UL - PriorityGroupTmp) > (uint32_t)(__NVIC_PRIO_BITS)) ? (uint32_t)(__NVIC_PRIO_BITS) : (uint32_t)(7UL - PriorityGroupTmp);
 8000288:	69fb      	ldr	r3, [r7, #28]
 800028a:	f1c3 0307 	rsb	r3, r3, #7
 800028e:	2b04      	cmp	r3, #4
 8000290:	bf28      	it	cs
 8000292:	2304      	movcs	r3, #4
 8000294:	61bb      	str	r3, [r7, #24]
  SubPriorityBits     = ((PriorityGroupTmp + (uint32_t)(__NVIC_PRIO_BITS)) < (uint32_t)7UL) ? (uint32_t)0UL : (uint32_t)((PriorityGroupTmp - 7UL) + (uint32_t)(__NVIC_PRIO_BITS));
 8000296:	69fb      	ldr	r3, [r7, #28]
 8000298:	3304      	adds	r3, #4
 800029a:	2b06      	cmp	r3, #6
 800029c:	d902      	bls.n	80002a4 <NVIC_EncodePriority+0x30>
 800029e:	69fb      	ldr	r3, [r7, #28]
 80002a0:	3b03      	subs	r3, #3
 80002a2:	e000      	b.n	80002a6 <NVIC_EncodePriority+0x32>
 80002a4:	2300      	movs	r3, #0
 80002a6:	617b      	str	r3, [r7, #20]

  return (
           ((PreemptPriority & (uint32_t)((1UL << (PreemptPriorityBits)) - 1UL)) << SubPriorityBits) |
 80002a8:	f04f 32ff 	mov.w	r2, #4294967295
 80002ac:	69bb      	ldr	r3, [r7, #24]
 80002ae:	fa02 f303 	lsl.w	r3, r2, r3
 80002b2:	43da      	mvns	r2, r3
 80002b4:	68bb      	ldr	r3, [r7, #8]
 80002b6:	401a      	ands	r2, r3
 80002b8:	697b      	ldr	r3, [r7, #20]
 80002ba:	409a      	lsls	r2, r3
           ((SubPriority     & (uint32_t)((1UL << (SubPriorityBits    )) - 1UL)))
 80002bc:	f04f 31ff 	mov.w	r1, #4294967295
 80002c0:	697b      	ldr	r3, [r7, #20]
 80002c2:	fa01 f303 	lsl.w	r3, r1, r3
 80002c6:	43d9      	mvns	r1, r3
 80002c8:	687b      	ldr	r3, [r7, #4]
 80002ca:	400b      	ands	r3, r1
           ((PreemptPriority & (uint32_t)((1UL << (PreemptPriorityBits)) - 1UL)) << SubPriorityBits) |
 80002cc:	4313      	orrs	r3, r2
         );
}
 80002ce:	4618      	mov	r0, r3
 80002d0:	3724      	adds	r7, #36	; 0x24
 80002d2:	46bd      	mov	sp, r7
 80002d4:	f85d 7b04 	ldr.w	r7, [sp], #4
 80002d8:	4770      	bx	lr
	...

080002dc <LL_AHB1_GRP1_EnableClock>:
  *
  *         (*) value not defined in all devices.
  * @retval None
*/
__STATIC_INLINE void LL_AHB1_GRP1_EnableClock(uint32_t Periphs)
{
 80002dc:	b480      	push	{r7}
 80002de:	b085      	sub	sp, #20
 80002e0:	af00      	add	r7, sp, #0
 80002e2:	6078      	str	r0, [r7, #4]
  __IO uint32_t tmpreg;
  SET_BIT(RCC->AHBENR, Periphs);
 80002e4:	4b08      	ldr	r3, [pc, #32]	; (8000308 <LL_AHB1_GRP1_EnableClock+0x2c>)
 80002e6:	695a      	ldr	r2, [r3, #20]
 80002e8:	4907      	ldr	r1, [pc, #28]	; (8000308 <LL_AHB1_GRP1_EnableClock+0x2c>)
 80002ea:	687b      	ldr	r3, [r7, #4]
 80002ec:	4313      	orrs	r3, r2
 80002ee:	614b      	str	r3, [r1, #20]
  /* Delay after an RCC peripheral clock enabling */
  tmpreg = READ_BIT(RCC->AHBENR, Periphs);
 80002f0:	4b05      	ldr	r3, [pc, #20]	; (8000308 <LL_AHB1_GRP1_EnableClock+0x2c>)
 80002f2:	695a      	ldr	r2, [r3, #20]
 80002f4:	687b      	ldr	r3, [r7, #4]
 80002f6:	4013      	ands	r3, r2
 80002f8:	60fb      	str	r3, [r7, #12]
  (void)tmpreg;
 80002fa:	68fb      	ldr	r3, [r7, #12]
}
 80002fc:	bf00      	nop
 80002fe:	3714      	adds	r7, #20
 8000300:	46bd      	mov	sp, r7
 8000302:	f85d 7b04 	ldr.w	r7, [sp], #4
 8000306:	4770      	bx	lr
 8000308:	40021000 	.word	0x40021000

0800030c <LL_SYSCFG_SetEXTISource>:
  *         @arg @ref LL_SYSCFG_EXTI_LINE14
  *         @arg @ref LL_SYSCFG_EXTI_LINE15
  * @retval None
  */
__STATIC_INLINE void LL_SYSCFG_SetEXTISource(uint32_t Port, uint32_t Line)
{
 800030c:	b480      	push	{r7}
 800030e:	b085      	sub	sp, #20
 8000310:	af00      	add	r7, sp, #0
 8000312:	6078      	str	r0, [r7, #4]
 8000314:	6039      	str	r1, [r7, #0]
  MODIFY_REG(SYSCFG->EXTICR[Line & 0xFF], (Line >> 16U), Port << POSITION_VAL((Line >> 16U)));
 8000316:	4a13      	ldr	r2, [pc, #76]	; (8000364 <LL_SYSCFG_SetEXTISource+0x58>)
 8000318:	683b      	ldr	r3, [r7, #0]
 800031a:	b2db      	uxtb	r3, r3
 800031c:	3302      	adds	r3, #2
 800031e:	f852 2023 	ldr.w	r2, [r2, r3, lsl #2]
 8000322:	683b      	ldr	r3, [r7, #0]
 8000324:	0c1b      	lsrs	r3, r3, #16
 8000326:	43db      	mvns	r3, r3
 8000328:	ea02 0103 	and.w	r1, r2, r3
 800032c:	683b      	ldr	r3, [r7, #0]
 800032e:	0c1b      	lsrs	r3, r3, #16
 8000330:	60fb      	str	r3, [r7, #12]
  uint32_t result;

#if ((defined (__ARM_ARCH_7M__      ) && (__ARM_ARCH_7M__      == 1)) || \
     (defined (__ARM_ARCH_7EM__     ) && (__ARM_ARCH_7EM__     == 1)) || \
     (defined (__ARM_ARCH_8M_MAIN__ ) && (__ARM_ARCH_8M_MAIN__ == 1))    )
   __ASM volatile ("rbit %0, %1" : "=r" (result) : "r" (value) );
 8000332:	68fb      	ldr	r3, [r7, #12]
 8000334:	fa93 f3a3 	rbit	r3, r3
 8000338:	60bb      	str	r3, [r7, #8]
    result |= value & 1U;
    s--;
  }
  result <<= s;                        /* shift when v's highest bits are zero */
#endif
  return result;
 800033a:	68bb      	ldr	r3, [r7, #8]
 800033c:	fab3 f383 	clz	r3, r3
 8000340:	b2db      	uxtb	r3, r3
 8000342:	461a      	mov	r2, r3
 8000344:	687b      	ldr	r3, [r7, #4]
 8000346:	fa03 f202 	lsl.w	r2, r3, r2
 800034a:	4806      	ldr	r0, [pc, #24]	; (8000364 <LL_SYSCFG_SetEXTISource+0x58>)
 800034c:	683b      	ldr	r3, [r7, #0]
 800034e:	b2db      	uxtb	r3, r3
 8000350:	430a      	orrs	r2, r1
 8000352:	3302      	adds	r3, #2
 8000354:	f840 2023 	str.w	r2, [r0, r3, lsl #2]
}
 8000358:	bf00      	nop
 800035a:	3714      	adds	r7, #20
 800035c:	46bd      	mov	sp, r7
 800035e:	f85d 7b04 	ldr.w	r7, [sp], #4
 8000362:	4770      	bx	lr
 8000364:	40010000 	.word	0x40010000

08000368 <LL_GPIO_SetPinMode>:
  *         @arg @ref LL_GPIO_MODE_ALTERNATE
  *         @arg @ref LL_GPIO_MODE_ANALOG
  * @retval None
  */
__STATIC_INLINE void LL_GPIO_SetPinMode(GPIO_TypeDef *GPIOx, uint32_t Pin, uint32_t Mode)
{
 8000368:	b480      	push	{r7}
 800036a:	b089      	sub	sp, #36	; 0x24
 800036c:	af00      	add	r7, sp, #0
 800036e:	60f8      	str	r0, [r7, #12]
 8000370:	60b9      	str	r1, [r7, #8]
 8000372:	607a      	str	r2, [r7, #4]
  MODIFY_REG(GPIOx->MODER, (GPIO_MODER_MODER0 << (POSITION_VAL(Pin) * 2U)), (Mode << (POSITION_VAL(Pin) * 2U)));
 8000374:	68fb      	ldr	r3, [r7, #12]
 8000376:	681a      	ldr	r2, [r3, #0]
 8000378:	68bb      	ldr	r3, [r7, #8]
 800037a:	617b      	str	r3, [r7, #20]
   __ASM volatile ("rbit %0, %1" : "=r" (result) : "r" (value) );
 800037c:	697b      	ldr	r3, [r7, #20]
 800037e:	fa93 f3a3 	rbit	r3, r3
 8000382:	613b      	str	r3, [r7, #16]
  return result;
 8000384:	693b      	ldr	r3, [r7, #16]
 8000386:	fab3 f383 	clz	r3, r3
 800038a:	b2db      	uxtb	r3, r3
 800038c:	005b      	lsls	r3, r3, #1
 800038e:	2103      	movs	r1, #3
 8000390:	fa01 f303 	lsl.w	r3, r1, r3
 8000394:	43db      	mvns	r3, r3
 8000396:	401a      	ands	r2, r3
 8000398:	68bb      	ldr	r3, [r7, #8]
 800039a:	61fb      	str	r3, [r7, #28]
   __ASM volatile ("rbit %0, %1" : "=r" (result) : "r" (value) );
 800039c:	69fb      	ldr	r3, [r7, #28]
 800039e:	fa93 f3a3 	rbit	r3, r3
 80003a2:	61bb      	str	r3, [r7, #24]
  return result;
 80003a4:	69bb      	ldr	r3, [r7, #24]
 80003a6:	fab3 f383 	clz	r3, r3
 80003aa:	b2db      	uxtb	r3, r3
 80003ac:	005b      	lsls	r3, r3, #1
 80003ae:	6879      	ldr	r1, [r7, #4]
 80003b0:	fa01 f303 	lsl.w	r3, r1, r3
 80003b4:	431a      	orrs	r2, r3
 80003b6:	68fb      	ldr	r3, [r7, #12]
 80003b8:	601a      	str	r2, [r3, #0]
}
 80003ba:	bf00      	nop
 80003bc:	3724      	adds	r7, #36	; 0x24
 80003be:	46bd      	mov	sp, r7
 80003c0:	f85d 7b04 	ldr.w	r7, [sp], #4
 80003c4:	4770      	bx	lr

080003c6 <LL_GPIO_SetPinPull>:
  *         @arg @ref LL_GPIO_PULL_UP
  *         @arg @ref LL_GPIO_PULL_DOWN
  * @retval None
  */
__STATIC_INLINE void LL_GPIO_SetPinPull(GPIO_TypeDef *GPIOx, uint32_t Pin, uint32_t Pull)
{
 80003c6:	b480      	push	{r7}
 80003c8:	b089      	sub	sp, #36	; 0x24
 80003ca:	af00      	add	r7, sp, #0
 80003cc:	60f8      	str	r0, [r7, #12]
 80003ce:	60b9      	str	r1, [r7, #8]
 80003d0:	607a      	str	r2, [r7, #4]
  MODIFY_REG(GPIOx->PUPDR, (GPIO_PUPDR_PUPDR0 << (POSITION_VAL(Pin) * 2U)), (Pull << (POSITION_VAL(Pin) * 2U)));
 80003d2:	68fb      	ldr	r3, [r7, #12]
 80003d4:	68da      	ldr	r2, [r3, #12]
 80003d6:	68bb      	ldr	r3, [r7, #8]
 80003d8:	617b      	str	r3, [r7, #20]
   __ASM volatile ("rbit %0, %1" : "=r" (result) : "r" (value) );
 80003da:	697b      	ldr	r3, [r7, #20]
 80003dc:	fa93 f3a3 	rbit	r3, r3
 80003e0:	613b      	str	r3, [r7, #16]
  return result;
 80003e2:	693b      	ldr	r3, [r7, #16]
 80003e4:	fab3 f383 	clz	r3, r3
 80003e8:	b2db      	uxtb	r3, r3
 80003ea:	005b      	lsls	r3, r3, #1
 80003ec:	2103      	movs	r1, #3
 80003ee:	fa01 f303 	lsl.w	r3, r1, r3
 80003f2:	43db      	mvns	r3, r3
 80003f4:	401a      	ands	r2, r3
 80003f6:	68bb      	ldr	r3, [r7, #8]
 80003f8:	61fb      	str	r3, [r7, #28]
   __ASM volatile ("rbit %0, %1" : "=r" (result) : "r" (value) );
 80003fa:	69fb      	ldr	r3, [r7, #28]
 80003fc:	fa93 f3a3 	rbit	r3, r3
 8000400:	61bb      	str	r3, [r7, #24]
  return result;
 8000402:	69bb      	ldr	r3, [r7, #24]
 8000404:	fab3 f383 	clz	r3, r3
 8000408:	b2db      	uxtb	r3, r3
 800040a:	005b      	lsls	r3, r3, #1
 800040c:	6879      	ldr	r1, [r7, #4]
 800040e:	fa01 f303 	lsl.w	r3, r1, r3
 8000412:	431a      	orrs	r2, r3
 8000414:	68fb      	ldr	r3, [r7, #12]
 8000416:	60da      	str	r2, [r3, #12]
}
 8000418:	bf00      	nop
 800041a:	3724      	adds	r7, #36	; 0x24
 800041c:	46bd      	mov	sp, r7
 800041e:	f85d 7b04 	ldr.w	r7, [sp], #4
 8000422:	4770      	bx	lr

08000424 <LL_GPIO_ResetOutputPin>:
  *         @arg @ref LL_GPIO_PIN_15
  *         @arg @ref LL_GPIO_PIN_ALL
  * @retval None
  */
__STATIC_INLINE void LL_GPIO_ResetOutputPin(GPIO_TypeDef *GPIOx, uint32_t PinMask)
{
 8000424:	b480      	push	{r7}
 8000426:	b083      	sub	sp, #12
 8000428:	af00      	add	r7, sp, #0
 800042a:	6078      	str	r0, [r7, #4]
 800042c:	6039      	str	r1, [r7, #0]
  WRITE_REG(GPIOx->BRR, PinMask);
 800042e:	687b      	ldr	r3, [r7, #4]
 8000430:	683a      	ldr	r2, [r7, #0]
 8000432:	629a      	str	r2, [r3, #40]	; 0x28
}
 8000434:	bf00      	nop
 8000436:	370c      	adds	r7, #12
 8000438:	46bd      	mov	sp, r7
 800043a:	f85d 7b04 	ldr.w	r7, [sp], #4
 800043e:	4770      	bx	lr

08000440 <MX_GPIO_Init>:
/* USER CODE END 1 */

/** Configure pins
*/
void MX_GPIO_Init(void)
{
 8000440:	b580      	push	{r7, lr}
 8000442:	b08a      	sub	sp, #40	; 0x28
 8000444:	af00      	add	r7, sp, #0

  LL_EXTI_InitTypeDef EXTI_InitStruct = {0};
 8000446:	f107 031c 	add.w	r3, r7, #28
 800044a:	2200      	movs	r2, #0
 800044c:	601a      	str	r2, [r3, #0]
 800044e:	605a      	str	r2, [r3, #4]
 8000450:	609a      	str	r2, [r3, #8]
  LL_GPIO_InitTypeDef GPIO_InitStruct = {0};
 8000452:	1d3b      	adds	r3, r7, #4
 8000454:	2200      	movs	r2, #0
 8000456:	601a      	str	r2, [r3, #0]
 8000458:	605a      	str	r2, [r3, #4]
 800045a:	609a      	str	r2, [r3, #8]
 800045c:	60da      	str	r2, [r3, #12]
 800045e:	611a      	str	r2, [r3, #16]
 8000460:	615a      	str	r2, [r3, #20]

  /* GPIO Ports Clock Enable */
  LL_AHB1_GRP1_EnableClock(LL_AHB1_GRP1_PERIPH_GPIOA);
 8000462:	f44f 3000 	mov.w	r0, #131072	; 0x20000
 8000466:	f7ff ff39 	bl	80002dc <LL_AHB1_GRP1_EnableClock>
  LL_AHB1_GRP1_EnableClock(LL_AHB1_GRP1_PERIPH_GPIOB);
 800046a:	f44f 2080 	mov.w	r0, #262144	; 0x40000
 800046e:	f7ff ff35 	bl	80002dc <LL_AHB1_GRP1_EnableClock>

  /**/
  LL_GPIO_ResetOutputPin(LED_GPIO_Port, LED_Pin);
 8000472:	2108      	movs	r1, #8
 8000474:	4824      	ldr	r0, [pc, #144]	; (8000508 <MX_GPIO_Init+0xc8>)
 8000476:	f7ff ffd5 	bl	8000424 <LL_GPIO_ResetOutputPin>

  /**/
  LL_SYSCFG_SetEXTISource(LL_SYSCFG_EXTI_PORTA, LL_SYSCFG_EXTI_LINE3);
 800047a:	f04f 4170 	mov.w	r1, #4026531840	; 0xf0000000
 800047e:	2000      	movs	r0, #0
 8000480:	f7ff ff44 	bl	800030c <LL_SYSCFG_SetEXTISource>

  /**/
  LL_GPIO_SetPinPull(BUTTON_GPIO_Port, BUTTON_Pin, LL_GPIO_PULL_NO);
 8000484:	2200      	movs	r2, #0
 8000486:	2108      	movs	r1, #8
 8000488:	f04f 4090 	mov.w	r0, #1207959552	; 0x48000000
 800048c:	f7ff ff9b 	bl	80003c6 <LL_GPIO_SetPinPull>

  /**/
  LL_GPIO_SetPinMode(BUTTON_GPIO_Port, BUTTON_Pin, LL_GPIO_MODE_INPUT);
 8000490:	2200      	movs	r2, #0
 8000492:	2108      	movs	r1, #8
 8000494:	f04f 4090 	mov.w	r0, #1207959552	; 0x48000000
 8000498:	f7ff ff66 	bl	8000368 <LL_GPIO_SetPinMode>

  /**/
  EXTI_InitStruct.Line_0_31 = LL_EXTI_LINE_3;
 800049c:	2308      	movs	r3, #8
 800049e:	61fb      	str	r3, [r7, #28]
  EXTI_InitStruct.Line_32_63 = LL_EXTI_LINE_NONE;
 80004a0:	2300      	movs	r3, #0
 80004a2:	623b      	str	r3, [r7, #32]
  EXTI_InitStruct.LineCommand = ENABLE;
 80004a4:	2301      	movs	r3, #1
 80004a6:	f887 3024 	strb.w	r3, [r7, #36]	; 0x24
  EXTI_InitStruct.Mode = LL_EXTI_MODE_IT;
 80004aa:	2300      	movs	r3, #0
 80004ac:	f887 3025 	strb.w	r3, [r7, #37]	; 0x25
  EXTI_InitStruct.Trigger = LL_EXTI_TRIGGER_RISING;
 80004b0:	2301      	movs	r3, #1
 80004b2:	f887 3026 	strb.w	r3, [r7, #38]	; 0x26
  LL_EXTI_Init(&EXTI_InitStruct);
 80004b6:	f107 031c 	add.w	r3, r7, #28
 80004ba:	4618      	mov	r0, r3
 80004bc:	f000 fbe2 	bl	8000c84 <LL_EXTI_Init>

  /**/
  GPIO_InitStruct.Pin = LED_Pin;
 80004c0:	2308      	movs	r3, #8
 80004c2:	607b      	str	r3, [r7, #4]
  GPIO_InitStruct.Mode = LL_GPIO_MODE_OUTPUT;
 80004c4:	2301      	movs	r3, #1
 80004c6:	60bb      	str	r3, [r7, #8]
  GPIO_InitStruct.Speed = LL_GPIO_SPEED_FREQ_LOW;
 80004c8:	2300      	movs	r3, #0
 80004ca:	60fb      	str	r3, [r7, #12]
  GPIO_InitStruct.OutputType = LL_GPIO_OUTPUT_PUSHPULL;
 80004cc:	2300      	movs	r3, #0
 80004ce:	613b      	str	r3, [r7, #16]
  GPIO_InitStruct.Pull = LL_GPIO_PULL_NO;
 80004d0:	2300      	movs	r3, #0
 80004d2:	617b      	str	r3, [r7, #20]
  LL_GPIO_Init(LED_GPIO_Port, &GPIO_InitStruct);
 80004d4:	1d3b      	adds	r3, r7, #4
 80004d6:	4619      	mov	r1, r3
 80004d8:	480b      	ldr	r0, [pc, #44]	; (8000508 <MX_GPIO_Init+0xc8>)
 80004da:	f000 fdc0 	bl	800105e <LL_GPIO_Init>

  /* EXTI interrupt init*/
  NVIC_SetPriority(EXTI3_IRQn, NVIC_EncodePriority(NVIC_GetPriorityGrouping(),0, 0));
 80004de:	f7ff fe73 	bl	80001c8 <__NVIC_GetPriorityGrouping>
 80004e2:	4603      	mov	r3, r0
 80004e4:	2200      	movs	r2, #0
 80004e6:	2100      	movs	r1, #0
 80004e8:	4618      	mov	r0, r3
 80004ea:	f7ff fec3 	bl	8000274 <NVIC_EncodePriority>
 80004ee:	4603      	mov	r3, r0
 80004f0:	4619      	mov	r1, r3
 80004f2:	2009      	movs	r0, #9
 80004f4:	f7ff fe94 	bl	8000220 <__NVIC_SetPriority>
  NVIC_EnableIRQ(EXTI3_IRQn);
 80004f8:	2009      	movs	r0, #9
 80004fa:	f7ff fe73 	bl	80001e4 <__NVIC_EnableIRQ>

}
 80004fe:	bf00      	nop
 8000500:	3728      	adds	r7, #40	; 0x28
 8000502:	46bd      	mov	sp, r7
 8000504:	bd80      	pop	{r7, pc}
 8000506:	bf00      	nop
 8000508:	48000400 	.word	0x48000400

0800050c <__NVIC_SetPriorityGrouping>:
{
 800050c:	b480      	push	{r7}
 800050e:	b085      	sub	sp, #20
 8000510:	af00      	add	r7, sp, #0
 8000512:	6078      	str	r0, [r7, #4]
  uint32_t PriorityGroupTmp = (PriorityGroup & (uint32_t)0x07UL);             /* only values 0..7 are used          */
 8000514:	687b      	ldr	r3, [r7, #4]
 8000516:	f003 0307 	and.w	r3, r3, #7
 800051a:	60fb      	str	r3, [r7, #12]
  reg_value  =  SCB->AIRCR;                                                   /* read old register configuration    */
 800051c:	4b0c      	ldr	r3, [pc, #48]	; (8000550 <__NVIC_SetPriorityGrouping+0x44>)
 800051e:	68db      	ldr	r3, [r3, #12]
 8000520:	60bb      	str	r3, [r7, #8]
  reg_value &= ~((uint32_t)(SCB_AIRCR_VECTKEY_Msk | SCB_AIRCR_PRIGROUP_Msk)); /* clear bits to change               */
 8000522:	68ba      	ldr	r2, [r7, #8]
 8000524:	f64f 03ff 	movw	r3, #63743	; 0xf8ff
 8000528:	4013      	ands	r3, r2
 800052a:	60bb      	str	r3, [r7, #8]
                (PriorityGroupTmp << SCB_AIRCR_PRIGROUP_Pos)  );              /* Insert write key and priority group */
 800052c:	68fb      	ldr	r3, [r7, #12]
 800052e:	021a      	lsls	r2, r3, #8
                ((uint32_t)0x5FAUL << SCB_AIRCR_VECTKEY_Pos) |
 8000530:	68bb      	ldr	r3, [r7, #8]
 8000532:	4313      	orrs	r3, r2
  reg_value  =  (reg_value                                   |
 8000534:	f043 63bf 	orr.w	r3, r3, #100139008	; 0x5f80000
 8000538:	f443 3300 	orr.w	r3, r3, #131072	; 0x20000
 800053c:	60bb      	str	r3, [r7, #8]
  SCB->AIRCR =  reg_value;
 800053e:	4a04      	ldr	r2, [pc, #16]	; (8000550 <__NVIC_SetPriorityGrouping+0x44>)
 8000540:	68bb      	ldr	r3, [r7, #8]
 8000542:	60d3      	str	r3, [r2, #12]
}
 8000544:	bf00      	nop
 8000546:	3714      	adds	r7, #20
 8000548:	46bd      	mov	sp, r7
 800054a:	f85d 7b04 	ldr.w	r7, [sp], #4
 800054e:	4770      	bx	lr
 8000550:	e000ed00 	.word	0xe000ed00

08000554 <LL_RCC_HSI_Enable>:
  * @brief  Enable HSI oscillator
  * @rmtoll CR           HSION         LL_RCC_HSI_Enable
  * @retval None
  */
__STATIC_INLINE void LL_RCC_HSI_Enable(void)
{
 8000554:	b480      	push	{r7}
 8000556:	af00      	add	r7, sp, #0
  SET_BIT(RCC->CR, RCC_CR_HSION);
 8000558:	4b05      	ldr	r3, [pc, #20]	; (8000570 <LL_RCC_HSI_Enable+0x1c>)
 800055a:	681b      	ldr	r3, [r3, #0]
 800055c:	4a04      	ldr	r2, [pc, #16]	; (8000570 <LL_RCC_HSI_Enable+0x1c>)
 800055e:	f043 0301 	orr.w	r3, r3, #1
 8000562:	6013      	str	r3, [r2, #0]
}
 8000564:	bf00      	nop
 8000566:	46bd      	mov	sp, r7
 8000568:	f85d 7b04 	ldr.w	r7, [sp], #4
 800056c:	4770      	bx	lr
 800056e:	bf00      	nop
 8000570:	40021000 	.word	0x40021000

08000574 <LL_RCC_HSI_IsReady>:
  * @brief  Check if HSI clock is ready
  * @rmtoll CR           HSIRDY        LL_RCC_HSI_IsReady
  * @retval State of bit (1 or 0).
  */
__STATIC_INLINE uint32_t LL_RCC_HSI_IsReady(void)
{
 8000574:	b480      	push	{r7}
 8000576:	af00      	add	r7, sp, #0
  return (READ_BIT(RCC->CR, RCC_CR_HSIRDY) == (RCC_CR_HSIRDY));
 8000578:	4b06      	ldr	r3, [pc, #24]	; (8000594 <LL_RCC_HSI_IsReady+0x20>)
 800057a:	681b      	ldr	r3, [r3, #0]
 800057c:	f003 0302 	and.w	r3, r3, #2
 8000580:	2b02      	cmp	r3, #2
 8000582:	bf0c      	ite	eq
 8000584:	2301      	moveq	r3, #1
 8000586:	2300      	movne	r3, #0
 8000588:	b2db      	uxtb	r3, r3
}
 800058a:	4618      	mov	r0, r3
 800058c:	46bd      	mov	sp, r7
 800058e:	f85d 7b04 	ldr.w	r7, [sp], #4
 8000592:	4770      	bx	lr
 8000594:	40021000 	.word	0x40021000

08000598 <LL_RCC_HSI_SetCalibTrimming>:
  * @rmtoll CR        HSITRIM       LL_RCC_HSI_SetCalibTrimming
  * @param  Value between Min_Data = 0x00 and Max_Data = 0x1F
  * @retval None
  */
__STATIC_INLINE void LL_RCC_HSI_SetCalibTrimming(uint32_t Value)
{
 8000598:	b480      	push	{r7}
 800059a:	b083      	sub	sp, #12
 800059c:	af00      	add	r7, sp, #0
 800059e:	6078      	str	r0, [r7, #4]
  MODIFY_REG(RCC->CR, RCC_CR_HSITRIM, Value << RCC_CR_HSITRIM_Pos);
 80005a0:	4b07      	ldr	r3, [pc, #28]	; (80005c0 <LL_RCC_HSI_SetCalibTrimming+0x28>)
 80005a2:	681b      	ldr	r3, [r3, #0]
 80005a4:	f023 02f8 	bic.w	r2, r3, #248	; 0xf8
 80005a8:	687b      	ldr	r3, [r7, #4]
 80005aa:	00db      	lsls	r3, r3, #3
 80005ac:	4904      	ldr	r1, [pc, #16]	; (80005c0 <LL_RCC_HSI_SetCalibTrimming+0x28>)
 80005ae:	4313      	orrs	r3, r2
 80005b0:	600b      	str	r3, [r1, #0]
}
 80005b2:	bf00      	nop
 80005b4:	370c      	adds	r7, #12
 80005b6:	46bd      	mov	sp, r7
 80005b8:	f85d 7b04 	ldr.w	r7, [sp], #4
 80005bc:	4770      	bx	lr
 80005be:	bf00      	nop
 80005c0:	40021000 	.word	0x40021000

080005c4 <LL_RCC_SetSysClkSource>:
  *         @arg @ref LL_RCC_SYS_CLKSOURCE_HSE
  *         @arg @ref LL_RCC_SYS_CLKSOURCE_PLL
  * @retval None
  */
__STATIC_INLINE void LL_RCC_SetSysClkSource(uint32_t Source)
{
 80005c4:	b480      	push	{r7}
 80005c6:	b083      	sub	sp, #12
 80005c8:	af00      	add	r7, sp, #0
 80005ca:	6078      	str	r0, [r7, #4]
  MODIFY_REG(RCC->CFGR, RCC_CFGR_SW, Source);
 80005cc:	4b06      	ldr	r3, [pc, #24]	; (80005e8 <LL_RCC_SetSysClkSource+0x24>)
 80005ce:	685b      	ldr	r3, [r3, #4]
 80005d0:	f023 0203 	bic.w	r2, r3, #3
 80005d4:	4904      	ldr	r1, [pc, #16]	; (80005e8 <LL_RCC_SetSysClkSource+0x24>)
 80005d6:	687b      	ldr	r3, [r7, #4]
 80005d8:	4313      	orrs	r3, r2
 80005da:	604b      	str	r3, [r1, #4]
}
 80005dc:	bf00      	nop
 80005de:	370c      	adds	r7, #12
 80005e0:	46bd      	mov	sp, r7
 80005e2:	f85d 7b04 	ldr.w	r7, [sp], #4
 80005e6:	4770      	bx	lr
 80005e8:	40021000 	.word	0x40021000

080005ec <LL_RCC_GetSysClkSource>:
  *         @arg @ref LL_RCC_SYS_CLKSOURCE_STATUS_HSI
  *         @arg @ref LL_RCC_SYS_CLKSOURCE_STATUS_HSE
  *         @arg @ref LL_RCC_SYS_CLKSOURCE_STATUS_PLL
  */
__STATIC_INLINE uint32_t LL_RCC_GetSysClkSource(void)
{
 80005ec:	b480      	push	{r7}
 80005ee:	af00      	add	r7, sp, #0
  return (uint32_t)(READ_BIT(RCC->CFGR, RCC_CFGR_SWS));
 80005f0:	4b04      	ldr	r3, [pc, #16]	; (8000604 <LL_RCC_GetSysClkSource+0x18>)
 80005f2:	685b      	ldr	r3, [r3, #4]
 80005f4:	f003 030c 	and.w	r3, r3, #12
}
 80005f8:	4618      	mov	r0, r3
 80005fa:	46bd      	mov	sp, r7
 80005fc:	f85d 7b04 	ldr.w	r7, [sp], #4
 8000600:	4770      	bx	lr
 8000602:	bf00      	nop
 8000604:	40021000 	.word	0x40021000

08000608 <LL_RCC_SetAHBPrescaler>:
  *         @arg @ref LL_RCC_SYSCLK_DIV_256
  *         @arg @ref LL_RCC_SYSCLK_DIV_512
  * @retval None
  */
__STATIC_INLINE void LL_RCC_SetAHBPrescaler(uint32_t Prescaler)
{
 8000608:	b480      	push	{r7}
 800060a:	b083      	sub	sp, #12
 800060c:	af00      	add	r7, sp, #0
 800060e:	6078      	str	r0, [r7, #4]
  MODIFY_REG(RCC->CFGR, RCC_CFGR_HPRE, Prescaler);
 8000610:	4b06      	ldr	r3, [pc, #24]	; (800062c <LL_RCC_SetAHBPrescaler+0x24>)
 8000612:	685b      	ldr	r3, [r3, #4]
 8000614:	f023 02f0 	bic.w	r2, r3, #240	; 0xf0
 8000618:	4904      	ldr	r1, [pc, #16]	; (800062c <LL_RCC_SetAHBPrescaler+0x24>)
 800061a:	687b      	ldr	r3, [r7, #4]
 800061c:	4313      	orrs	r3, r2
 800061e:	604b      	str	r3, [r1, #4]
}
 8000620:	bf00      	nop
 8000622:	370c      	adds	r7, #12
 8000624:	46bd      	mov	sp, r7
 8000626:	f85d 7b04 	ldr.w	r7, [sp], #4
 800062a:	4770      	bx	lr
 800062c:	40021000 	.word	0x40021000

08000630 <LL_RCC_SetAPB1Prescaler>:
  *         @arg @ref LL_RCC_APB1_DIV_8
  *         @arg @ref LL_RCC_APB1_DIV_16
  * @retval None
  */
__STATIC_INLINE void LL_RCC_SetAPB1Prescaler(uint32_t Prescaler)
{
 8000630:	b480      	push	{r7}
 8000632:	b083      	sub	sp, #12
 8000634:	af00      	add	r7, sp, #0
 8000636:	6078      	str	r0, [r7, #4]
  MODIFY_REG(RCC->CFGR, RCC_CFGR_PPRE1, Prescaler);
 8000638:	4b06      	ldr	r3, [pc, #24]	; (8000654 <LL_RCC_SetAPB1Prescaler+0x24>)
 800063a:	685b      	ldr	r3, [r3, #4]
 800063c:	f423 62e0 	bic.w	r2, r3, #1792	; 0x700
 8000640:	4904      	ldr	r1, [pc, #16]	; (8000654 <LL_RCC_SetAPB1Prescaler+0x24>)
 8000642:	687b      	ldr	r3, [r7, #4]
 8000644:	4313      	orrs	r3, r2
 8000646:	604b      	str	r3, [r1, #4]
}
 8000648:	bf00      	nop
 800064a:	370c      	adds	r7, #12
 800064c:	46bd      	mov	sp, r7
 800064e:	f85d 7b04 	ldr.w	r7, [sp], #4
 8000652:	4770      	bx	lr
 8000654:	40021000 	.word	0x40021000

08000658 <LL_RCC_SetAPB2Prescaler>:
  *         @arg @ref LL_RCC_APB2_DIV_8
  *         @arg @ref LL_RCC_APB2_DIV_16
  * @retval None
  */
__STATIC_INLINE void LL_RCC_SetAPB2Prescaler(uint32_t Prescaler)
{
 8000658:	b480      	push	{r7}
 800065a:	b083      	sub	sp, #12
 800065c:	af00      	add	r7, sp, #0
 800065e:	6078      	str	r0, [r7, #4]
  MODIFY_REG(RCC->CFGR, RCC_CFGR_PPRE2, Prescaler);
 8000660:	4b06      	ldr	r3, [pc, #24]	; (800067c <LL_RCC_SetAPB2Prescaler+0x24>)
 8000662:	685b      	ldr	r3, [r3, #4]
 8000664:	f423 5260 	bic.w	r2, r3, #14336	; 0x3800
 8000668:	4904      	ldr	r1, [pc, #16]	; (800067c <LL_RCC_SetAPB2Prescaler+0x24>)
 800066a:	687b      	ldr	r3, [r7, #4]
 800066c:	4313      	orrs	r3, r2
 800066e:	604b      	str	r3, [r1, #4]
}
 8000670:	bf00      	nop
 8000672:	370c      	adds	r7, #12
 8000674:	46bd      	mov	sp, r7
 8000676:	f85d 7b04 	ldr.w	r7, [sp], #4
 800067a:	4770      	bx	lr
 800067c:	40021000 	.word	0x40021000

08000680 <LL_APB1_GRP1_EnableClock>:
  *
  *         (*) value not defined in all devices.
  * @retval None
*/
__STATIC_INLINE void LL_APB1_GRP1_EnableClock(uint32_t Periphs)
{
 8000680:	b480      	push	{r7}
 8000682:	b085      	sub	sp, #20
 8000684:	af00      	add	r7, sp, #0
 8000686:	6078      	str	r0, [r7, #4]
  __IO uint32_t tmpreg;
  SET_BIT(RCC->APB1ENR, Periphs);
 8000688:	4b08      	ldr	r3, [pc, #32]	; (80006ac <LL_APB1_GRP1_EnableClock+0x2c>)
 800068a:	69da      	ldr	r2, [r3, #28]
 800068c:	4907      	ldr	r1, [pc, #28]	; (80006ac <LL_APB1_GRP1_EnableClock+0x2c>)
 800068e:	687b      	ldr	r3, [r7, #4]
 8000690:	4313      	orrs	r3, r2
 8000692:	61cb      	str	r3, [r1, #28]
  /* Delay after an RCC peripheral clock enabling */
  tmpreg = READ_BIT(RCC->APB1ENR, Periphs);
 8000694:	4b05      	ldr	r3, [pc, #20]	; (80006ac <LL_APB1_GRP1_EnableClock+0x2c>)
 8000696:	69da      	ldr	r2, [r3, #28]
 8000698:	687b      	ldr	r3, [r7, #4]
 800069a:	4013      	ands	r3, r2
 800069c:	60fb      	str	r3, [r7, #12]
  (void)tmpreg;
 800069e:	68fb      	ldr	r3, [r7, #12]
}
 80006a0:	bf00      	nop
 80006a2:	3714      	adds	r7, #20
 80006a4:	46bd      	mov	sp, r7
 80006a6:	f85d 7b04 	ldr.w	r7, [sp], #4
 80006aa:	4770      	bx	lr
 80006ac:	40021000 	.word	0x40021000

080006b0 <LL_APB2_GRP1_EnableClock>:
  *
  *         (*) value not defined in all devices.
  * @retval None
*/
__STATIC_INLINE void LL_APB2_GRP1_EnableClock(uint32_t Periphs)
{
 80006b0:	b480      	push	{r7}
 80006b2:	b085      	sub	sp, #20
 80006b4:	af00      	add	r7, sp, #0
 80006b6:	6078      	str	r0, [r7, #4]
  __IO uint32_t tmpreg;
  SET_BIT(RCC->APB2ENR, Periphs);
 80006b8:	4b08      	ldr	r3, [pc, #32]	; (80006dc <LL_APB2_GRP1_EnableClock+0x2c>)
 80006ba:	699a      	ldr	r2, [r3, #24]
 80006bc:	4907      	ldr	r1, [pc, #28]	; (80006dc <LL_APB2_GRP1_EnableClock+0x2c>)
 80006be:	687b      	ldr	r3, [r7, #4]
 80006c0:	4313      	orrs	r3, r2
 80006c2:	618b      	str	r3, [r1, #24]
  /* Delay after an RCC peripheral clock enabling */
  tmpreg = READ_BIT(RCC->APB2ENR, Periphs);
 80006c4:	4b05      	ldr	r3, [pc, #20]	; (80006dc <LL_APB2_GRP1_EnableClock+0x2c>)
 80006c6:	699a      	ldr	r2, [r3, #24]
 80006c8:	687b      	ldr	r3, [r7, #4]
 80006ca:	4013      	ands	r3, r2
 80006cc:	60fb      	str	r3, [r7, #12]
  (void)tmpreg;
 80006ce:	68fb      	ldr	r3, [r7, #12]
}
 80006d0:	bf00      	nop
 80006d2:	3714      	adds	r7, #20
 80006d4:	46bd      	mov	sp, r7
 80006d6:	f85d 7b04 	ldr.w	r7, [sp], #4
 80006da:	4770      	bx	lr
 80006dc:	40021000 	.word	0x40021000

080006e0 <LL_FLASH_SetLatency>:
  *         @arg @ref LL_FLASH_LATENCY_1
  *         @arg @ref LL_FLASH_LATENCY_2
  * @retval None
  */
__STATIC_INLINE void LL_FLASH_SetLatency(uint32_t Latency)
{
 80006e0:	b480      	push	{r7}
 80006e2:	b083      	sub	sp, #12
 80006e4:	af00      	add	r7, sp, #0
 80006e6:	6078      	str	r0, [r7, #4]
  MODIFY_REG(FLASH->ACR, FLASH_ACR_LATENCY, Latency);
 80006e8:	4b06      	ldr	r3, [pc, #24]	; (8000704 <LL_FLASH_SetLatency+0x24>)
 80006ea:	681b      	ldr	r3, [r3, #0]
 80006ec:	f023 0207 	bic.w	r2, r3, #7
 80006f0:	4904      	ldr	r1, [pc, #16]	; (8000704 <LL_FLASH_SetLatency+0x24>)
 80006f2:	687b      	ldr	r3, [r7, #4]
 80006f4:	4313      	orrs	r3, r2
 80006f6:	600b      	str	r3, [r1, #0]
}
 80006f8:	bf00      	nop
 80006fa:	370c      	adds	r7, #12
 80006fc:	46bd      	mov	sp, r7
 80006fe:	f85d 7b04 	ldr.w	r7, [sp], #4
 8000702:	4770      	bx	lr
 8000704:	40022000 	.word	0x40022000

08000708 <LL_FLASH_GetLatency>:
  *         @arg @ref LL_FLASH_LATENCY_0
  *         @arg @ref LL_FLASH_LATENCY_1
  *         @arg @ref LL_FLASH_LATENCY_2
  */
__STATIC_INLINE uint32_t LL_FLASH_GetLatency(void)
{
 8000708:	b480      	push	{r7}
 800070a:	af00      	add	r7, sp, #0
  return (uint32_t)(READ_BIT(FLASH->ACR, FLASH_ACR_LATENCY));
 800070c:	4b04      	ldr	r3, [pc, #16]	; (8000720 <LL_FLASH_GetLatency+0x18>)
 800070e:	681b      	ldr	r3, [r3, #0]
 8000710:	f003 0307 	and.w	r3, r3, #7
}
 8000714:	4618      	mov	r0, r3
 8000716:	46bd      	mov	sp, r7
 8000718:	f85d 7b04 	ldr.w	r7, [sp], #4
 800071c:	4770      	bx	lr
 800071e:	bf00      	nop
 8000720:	40022000 	.word	0x40022000

08000724 <LL_GPIO_SetOutputPin>:
{
 8000724:	b480      	push	{r7}
 8000726:	b083      	sub	sp, #12
 8000728:	af00      	add	r7, sp, #0
 800072a:	6078      	str	r0, [r7, #4]
 800072c:	6039      	str	r1, [r7, #0]
  WRITE_REG(GPIOx->BSRR, PinMask);
 800072e:	687b      	ldr	r3, [r7, #4]
 8000730:	683a      	ldr	r2, [r7, #0]
 8000732:	619a      	str	r2, [r3, #24]
}
 8000734:	bf00      	nop
 8000736:	370c      	adds	r7, #12
 8000738:	46bd      	mov	sp, r7
 800073a:	f85d 7b04 	ldr.w	r7, [sp], #4
 800073e:	4770      	bx	lr

08000740 <LL_GPIO_ResetOutputPin>:
{
 8000740:	b480      	push	{r7}
 8000742:	b083      	sub	sp, #12
 8000744:	af00      	add	r7, sp, #0
 8000746:	6078      	str	r0, [r7, #4]
 8000748:	6039      	str	r1, [r7, #0]
  WRITE_REG(GPIOx->BRR, PinMask);
 800074a:	687b      	ldr	r3, [r7, #4]
 800074c:	683a      	ldr	r2, [r7, #0]
 800074e:	629a      	str	r2, [r3, #40]	; 0x28
}
 8000750:	bf00      	nop
 8000752:	370c      	adds	r7, #12
 8000754:	46bd      	mov	sp, r7
 8000756:	f85d 7b04 	ldr.w	r7, [sp], #4
 800075a:	4770      	bx	lr

0800075c <main>:


uint8_t switch_state = 0;

int main(void)
{
 800075c:	b580      	push	{r7, lr}
 800075e:	b082      	sub	sp, #8
 8000760:	af00      	add	r7, sp, #0

  /* MCU Configuration--------------------------------------------------------*/

  /* Reset of all peripherals, Initializes the Flash interface and the Systick. */

  LL_APB2_GRP1_EnableClock(LL_APB2_GRP1_PERIPH_SYSCFG);
 8000762:	2001      	movs	r0, #1
 8000764:	f7ff ffa4 	bl	80006b0 <LL_APB2_GRP1_EnableClock>
  LL_APB1_GRP1_EnableClock(LL_APB1_GRP1_PERIPH_PWR);
 8000768:	f04f 5080 	mov.w	r0, #268435456	; 0x10000000
 800076c:	f7ff ff88 	bl	8000680 <LL_APB1_GRP1_EnableClock>

  NVIC_SetPriorityGrouping(NVIC_PRIORITYGROUP_4);
 8000770:	2003      	movs	r0, #3
 8000772:	f7ff fecb 	bl	800050c <__NVIC_SetPriorityGrouping>
  /* USER CODE BEGIN Init */

  /* USER CODE END Init */

  /* Configure the system clock */
  SystemClock_Config();
 8000776:	f000 f82d 	bl	80007d4 <SystemClock_Config>
  /* USER CODE BEGIN SysInit */

  /* USER CODE END SysInit */

  /* Initialize all configured peripherals */
  MX_GPIO_Init();
 800077a:	f7ff fe61 	bl	8000440 <MX_GPIO_Init>
  /* Infinite loop */
  /* USER CODE BEGIN WHILE */
  while (1)
  {
    /* USER CODE END WHILE */
	  if(switch_state)
 800077e:	4b13      	ldr	r3, [pc, #76]	; (80007cc <main+0x70>)
 8000780:	781b      	ldrb	r3, [r3, #0]
 8000782:	2b00      	cmp	r3, #0
 8000784:	d01c      	beq.n	80007c0 <main+0x64>
	  {
		  LL_GPIO_SetOutputPin(GPIOB, LL_GPIO_PIN_3);
 8000786:	2108      	movs	r1, #8
 8000788:	4811      	ldr	r0, [pc, #68]	; (80007d0 <main+0x74>)
 800078a:	f7ff ffcb 	bl	8000724 <LL_GPIO_SetOutputPin>
		  for(uint16_t i=0; i<0xFF00; i++){}
 800078e:	2300      	movs	r3, #0
 8000790:	80fb      	strh	r3, [r7, #6]
 8000792:	e002      	b.n	800079a <main+0x3e>
 8000794:	88fb      	ldrh	r3, [r7, #6]
 8000796:	3301      	adds	r3, #1
 8000798:	80fb      	strh	r3, [r7, #6]
 800079a:	88fb      	ldrh	r3, [r7, #6]
 800079c:	f5b3 4f7f 	cmp.w	r3, #65280	; 0xff00
 80007a0:	d3f8      	bcc.n	8000794 <main+0x38>
		  LL_GPIO_ResetOutputPin(GPIOB, LL_GPIO_PIN_3);
 80007a2:	2108      	movs	r1, #8
 80007a4:	480a      	ldr	r0, [pc, #40]	; (80007d0 <main+0x74>)
 80007a6:	f7ff ffcb 	bl	8000740 <LL_GPIO_ResetOutputPin>
		  for(uint16_t i=0; i<0xFF00; i++){}
 80007aa:	2300      	movs	r3, #0
 80007ac:	80bb      	strh	r3, [r7, #4]
 80007ae:	e002      	b.n	80007b6 <main+0x5a>
 80007b0:	88bb      	ldrh	r3, [r7, #4]
 80007b2:	3301      	adds	r3, #1
 80007b4:	80bb      	strh	r3, [r7, #4]
 80007b6:	88bb      	ldrh	r3, [r7, #4]
 80007b8:	f5b3 4f7f 	cmp.w	r3, #65280	; 0xff00
 80007bc:	d3f8      	bcc.n	80007b0 <main+0x54>
 80007be:	e7de      	b.n	800077e <main+0x22>
	  }
	  else
	  {
		  LL_GPIO_ResetOutputPin(GPIOB, LL_GPIO_PIN_3);
 80007c0:	2108      	movs	r1, #8
 80007c2:	4803      	ldr	r0, [pc, #12]	; (80007d0 <main+0x74>)
 80007c4:	f7ff ffbc 	bl	8000740 <LL_GPIO_ResetOutputPin>
	  if(switch_state)
 80007c8:	e7d9      	b.n	800077e <main+0x22>
 80007ca:	bf00      	nop
 80007cc:	20000020 	.word	0x20000020
 80007d0:	48000400 	.word	0x48000400

080007d4 <SystemClock_Config>:
/**
  * @brief System Clock Configuration
  * @retval None
  */
void SystemClock_Config(void)
{
 80007d4:	b580      	push	{r7, lr}
 80007d6:	af00      	add	r7, sp, #0
  LL_FLASH_SetLatency(LL_FLASH_LATENCY_0);
 80007d8:	2000      	movs	r0, #0
 80007da:	f7ff ff81 	bl	80006e0 <LL_FLASH_SetLatency>
  while(LL_FLASH_GetLatency()!= LL_FLASH_LATENCY_0)
 80007de:	bf00      	nop
 80007e0:	f7ff ff92 	bl	8000708 <LL_FLASH_GetLatency>
 80007e4:	4603      	mov	r3, r0
 80007e6:	2b00      	cmp	r3, #0
 80007e8:	d1fa      	bne.n	80007e0 <SystemClock_Config+0xc>
  {
  }
  LL_RCC_HSI_Enable();
 80007ea:	f7ff feb3 	bl	8000554 <LL_RCC_HSI_Enable>

   /* Wait till HSI is ready */
  while(LL_RCC_HSI_IsReady() != 1)
 80007ee:	bf00      	nop
 80007f0:	f7ff fec0 	bl	8000574 <LL_RCC_HSI_IsReady>
 80007f4:	4603      	mov	r3, r0
 80007f6:	2b01      	cmp	r3, #1
 80007f8:	d1fa      	bne.n	80007f0 <SystemClock_Config+0x1c>
  {

  }
  LL_RCC_HSI_SetCalibTrimming(16);
 80007fa:	2010      	movs	r0, #16
 80007fc:	f7ff fecc 	bl	8000598 <LL_RCC_HSI_SetCalibTrimming>
  LL_RCC_SetAHBPrescaler(LL_RCC_SYSCLK_DIV_1);
 8000800:	2000      	movs	r0, #0
 8000802:	f7ff ff01 	bl	8000608 <LL_RCC_SetAHBPrescaler>
  LL_RCC_SetAPB1Prescaler(LL_RCC_APB1_DIV_1);
 8000806:	2000      	movs	r0, #0
 8000808:	f7ff ff12 	bl	8000630 <LL_RCC_SetAPB1Prescaler>
  LL_RCC_SetAPB2Prescaler(LL_RCC_APB1_DIV_1);
 800080c:	2000      	movs	r0, #0
 800080e:	f7ff ff23 	bl	8000658 <LL_RCC_SetAPB2Prescaler>
  LL_RCC_SetSysClkSource(LL_RCC_SYS_CLKSOURCE_HSI);
 8000812:	2000      	movs	r0, #0
 8000814:	f7ff fed6 	bl	80005c4 <LL_RCC_SetSysClkSource>

   /* Wait till System clock is ready */
  while(LL_RCC_GetSysClkSource() != LL_RCC_SYS_CLKSOURCE_STATUS_HSI)
 8000818:	bf00      	nop
 800081a:	f7ff fee7 	bl	80005ec <LL_RCC_GetSysClkSource>
 800081e:	4603      	mov	r3, r0
 8000820:	2b00      	cmp	r3, #0
 8000822:	d1fa      	bne.n	800081a <SystemClock_Config+0x46>
  {

  }
  LL_Init1msTick(8000000);
 8000824:	4803      	ldr	r0, [pc, #12]	; (8000834 <SystemClock_Config+0x60>)
 8000826:	f000 fca5 	bl	8001174 <LL_Init1msTick>
  LL_SetSystemCoreClock(8000000);
 800082a:	4802      	ldr	r0, [pc, #8]	; (8000834 <SystemClock_Config+0x60>)
 800082c:	f000 fcd4 	bl	80011d8 <LL_SetSystemCoreClock>
}
 8000830:	bf00      	nop
 8000832:	bd80      	pop	{r7, pc}
 8000834:	007a1200 	.word	0x007a1200

08000838 <checkButtonState>:

  /* USER CODE END Error_Handler_Debug */
}

uint8_t checkButtonState(GPIO_TypeDef* PORT, uint8_t PIN, uint8_t edge, uint8_t samples_window, uint8_t samples_required)
{
 8000838:	b580      	push	{r7, lr}
 800083a:	b084      	sub	sp, #16
 800083c:	af00      	add	r7, sp, #0
 800083e:	6078      	str	r0, [r7, #4]
 8000840:	4608      	mov	r0, r1
 8000842:	4611      	mov	r1, r2
 8000844:	461a      	mov	r2, r3
 8000846:	4603      	mov	r3, r0
 8000848:	70fb      	strb	r3, [r7, #3]
 800084a:	460b      	mov	r3, r1
 800084c:	70bb      	strb	r3, [r7, #2]
 800084e:	4613      	mov	r3, r2
 8000850:	707b      	strb	r3, [r7, #1]
	  //type your code for "checkButtonState" implementation here:

	uint8_t button_state = 0, timeout = 0;
 8000852:	2300      	movs	r3, #0
 8000854:	73fb      	strb	r3, [r7, #15]
 8000856:	2300      	movs	r3, #0
 8000858:	73bb      	strb	r3, [r7, #14]

	while(button_state < samples_required && timeout < samples_window)
 800085a:	e014      	b.n	8000886 <checkButtonState+0x4e>
	{
		if(!(PORT->IDR & (edge << PIN))/*LL_GPIO_IsInputPinSet(PORT, PIN)*/)
 800085c:	687b      	ldr	r3, [r7, #4]
 800085e:	691b      	ldr	r3, [r3, #16]
 8000860:	78b9      	ldrb	r1, [r7, #2]
 8000862:	78fa      	ldrb	r2, [r7, #3]
 8000864:	fa01 f202 	lsl.w	r2, r1, r2
 8000868:	4013      	ands	r3, r2
 800086a:	2b00      	cmp	r3, #0
 800086c:	d103      	bne.n	8000876 <checkButtonState+0x3e>
		{
			button_state += 1;
 800086e:	7bfb      	ldrb	r3, [r7, #15]
 8000870:	3301      	adds	r3, #1
 8000872:	73fb      	strb	r3, [r7, #15]
 8000874:	e001      	b.n	800087a <checkButtonState+0x42>
		}
		else
		{
			button_state = 0;
 8000876:	2300      	movs	r3, #0
 8000878:	73fb      	strb	r3, [r7, #15]
		}

		timeout += 1;
 800087a:	7bbb      	ldrb	r3, [r7, #14]
 800087c:	3301      	adds	r3, #1
 800087e:	73bb      	strb	r3, [r7, #14]
		LL_mDelay(1);
 8000880:	2001      	movs	r0, #1
 8000882:	f000 fc85 	bl	8001190 <LL_mDelay>
	while(button_state < samples_required && timeout < samples_window)
 8000886:	7bfa      	ldrb	r2, [r7, #15]
 8000888:	7e3b      	ldrb	r3, [r7, #24]
 800088a:	429a      	cmp	r2, r3
 800088c:	d203      	bcs.n	8000896 <checkButtonState+0x5e>
 800088e:	7bba      	ldrb	r2, [r7, #14]
 8000890:	787b      	ldrb	r3, [r7, #1]
 8000892:	429a      	cmp	r2, r3
 8000894:	d3e2      	bcc.n	800085c <checkButtonState+0x24>
	}

	if((button_state >= 20) && (timeout <= 50))
 8000896:	7bfb      	ldrb	r3, [r7, #15]
 8000898:	2b13      	cmp	r3, #19
 800089a:	d904      	bls.n	80008a6 <checkButtonState+0x6e>
 800089c:	7bbb      	ldrb	r3, [r7, #14]
 800089e:	2b32      	cmp	r3, #50	; 0x32
 80008a0:	d801      	bhi.n	80008a6 <checkButtonState+0x6e>
	{
		return 1;
 80008a2:	2301      	movs	r3, #1
 80008a4:	e000      	b.n	80008a8 <checkButtonState+0x70>
	}
	else
	{
		return 0;
 80008a6:	2300      	movs	r3, #0
	}

}
 80008a8:	4618      	mov	r0, r3
 80008aa:	3710      	adds	r7, #16
 80008ac:	46bd      	mov	sp, r7
 80008ae:	bd80      	pop	{r7, pc}

080008b0 <LL_EXTI_IsActiveFlag_0_31>:
  *         @arg @ref LL_EXTI_LINE_31
  * @note   Please check each device line mapping for EXTI Line availability
  * @retval State of bit (1 or 0).
  */
__STATIC_INLINE uint32_t LL_EXTI_IsActiveFlag_0_31(uint32_t ExtiLine)
{
 80008b0:	b480      	push	{r7}
 80008b2:	b083      	sub	sp, #12
 80008b4:	af00      	add	r7, sp, #0
 80008b6:	6078      	str	r0, [r7, #4]
  return (READ_BIT(EXTI->PR, ExtiLine) == (ExtiLine));
 80008b8:	4b07      	ldr	r3, [pc, #28]	; (80008d8 <LL_EXTI_IsActiveFlag_0_31+0x28>)
 80008ba:	695a      	ldr	r2, [r3, #20]
 80008bc:	687b      	ldr	r3, [r7, #4]
 80008be:	4013      	ands	r3, r2
 80008c0:	687a      	ldr	r2, [r7, #4]
 80008c2:	429a      	cmp	r2, r3
 80008c4:	bf0c      	ite	eq
 80008c6:	2301      	moveq	r3, #1
 80008c8:	2300      	movne	r3, #0
 80008ca:	b2db      	uxtb	r3, r3
}
 80008cc:	4618      	mov	r0, r3
 80008ce:	370c      	adds	r7, #12
 80008d0:	46bd      	mov	sp, r7
 80008d2:	f85d 7b04 	ldr.w	r7, [sp], #4
 80008d6:	4770      	bx	lr
 80008d8:	40010400 	.word	0x40010400

080008dc <LL_EXTI_ClearFlag_0_31>:
  *         @arg @ref LL_EXTI_LINE_31
  * @note   Please check each device line mapping for EXTI Line availability
  * @retval None
  */
__STATIC_INLINE void LL_EXTI_ClearFlag_0_31(uint32_t ExtiLine)
{
 80008dc:	b480      	push	{r7}
 80008de:	b083      	sub	sp, #12
 80008e0:	af00      	add	r7, sp, #0
 80008e2:	6078      	str	r0, [r7, #4]
  WRITE_REG(EXTI->PR, ExtiLine);
 80008e4:	4a04      	ldr	r2, [pc, #16]	; (80008f8 <LL_EXTI_ClearFlag_0_31+0x1c>)
 80008e6:	687b      	ldr	r3, [r7, #4]
 80008e8:	6153      	str	r3, [r2, #20]
}
 80008ea:	bf00      	nop
 80008ec:	370c      	adds	r7, #12
 80008ee:	46bd      	mov	sp, r7
 80008f0:	f85d 7b04 	ldr.w	r7, [sp], #4
 80008f4:	4770      	bx	lr
 80008f6:	bf00      	nop
 80008f8:	40010400 	.word	0x40010400

080008fc <NMI_Handler>:
/******************************************************************************/
/**
  * @brief This function handles Non maskable interrupt.
  */
void NMI_Handler(void)
{
 80008fc:	b480      	push	{r7}
 80008fe:	af00      	add	r7, sp, #0

  /* USER CODE END NonMaskableInt_IRQn 0 */
  /* USER CODE BEGIN NonMaskableInt_IRQn 1 */

  /* USER CODE END NonMaskableInt_IRQn 1 */
}
 8000900:	bf00      	nop
 8000902:	46bd      	mov	sp, r7
 8000904:	f85d 7b04 	ldr.w	r7, [sp], #4
 8000908:	4770      	bx	lr

0800090a <HardFault_Handler>:

/**
  * @brief This function handles Hard fault interrupt.
  */
void HardFault_Handler(void)
{
 800090a:	b480      	push	{r7}
 800090c:	af00      	add	r7, sp, #0
  /* USER CODE BEGIN HardFault_IRQn 0 */

  /* USER CODE END HardFault_IRQn 0 */
  while (1)
 800090e:	e7fe      	b.n	800090e <HardFault_Handler+0x4>

08000910 <MemManage_Handler>:

/**
  * @brief This function handles Memory management fault.
  */
void MemManage_Handler(void)
{
 8000910:	b480      	push	{r7}
 8000912:	af00      	add	r7, sp, #0
  /* USER CODE BEGIN MemoryManagement_IRQn 0 */

  /* USER CODE END MemoryManagement_IRQn 0 */
  while (1)
 8000914:	e7fe      	b.n	8000914 <MemManage_Handler+0x4>

08000916 <BusFault_Handler>:

/**
  * @brief This function handles Pre-fetch fault, memory access fault.
  */
void BusFault_Handler(void)
{
 8000916:	b480      	push	{r7}
 8000918:	af00      	add	r7, sp, #0
  /* USER CODE BEGIN BusFault_IRQn 0 */

  /* USER CODE END BusFault_IRQn 0 */
  while (1)
 800091a:	e7fe      	b.n	800091a <BusFault_Handler+0x4>

0800091c <UsageFault_Handler>:

/**
  * @brief This function handles Undefined instruction or illegal state.
  */
void UsageFault_Handler(void)
{
 800091c:	b480      	push	{r7}
 800091e:	af00      	add	r7, sp, #0
  /* USER CODE BEGIN UsageFault_IRQn 0 */

  /* USER CODE END UsageFault_IRQn 0 */
  while (1)
 8000920:	e7fe      	b.n	8000920 <UsageFault_Handler+0x4>

08000922 <SVC_Handler>:

/**
  * @brief This function handles System service call via SWI instruction.
  */
void SVC_Handler(void)
{
 8000922:	b480      	push	{r7}
 8000924:	af00      	add	r7, sp, #0

  /* USER CODE END SVCall_IRQn 0 */
  /* USER CODE BEGIN SVCall_IRQn 1 */

  /* USER CODE END SVCall_IRQn 1 */
}
 8000926:	bf00      	nop
 8000928:	46bd      	mov	sp, r7
 800092a:	f85d 7b04 	ldr.w	r7, [sp], #4
 800092e:	4770      	bx	lr

08000930 <DebugMon_Handler>:

/**
  * @brief This function handles Debug monitor.
  */
void DebugMon_Handler(void)
{
 8000930:	b480      	push	{r7}
 8000932:	af00      	add	r7, sp, #0

  /* USER CODE END DebugMonitor_IRQn 0 */
  /* USER CODE BEGIN DebugMonitor_IRQn 1 */

  /* USER CODE END DebugMonitor_IRQn 1 */
}
 8000934:	bf00      	nop
 8000936:	46bd      	mov	sp, r7
 8000938:	f85d 7b04 	ldr.w	r7, [sp], #4
 800093c:	4770      	bx	lr

0800093e <PendSV_Handler>:

/**
  * @brief This function handles Pendable request for system service.
  */
void PendSV_Handler(void)
{
 800093e:	b480      	push	{r7}
 8000940:	af00      	add	r7, sp, #0

  /* USER CODE END PendSV_IRQn 0 */
  /* USER CODE BEGIN PendSV_IRQn 1 */

  /* USER CODE END PendSV_IRQn 1 */
}
 8000942:	bf00      	nop
 8000944:	46bd      	mov	sp, r7
 8000946:	f85d 7b04 	ldr.w	r7, [sp], #4
 800094a:	4770      	bx	lr

0800094c <SysTick_Handler>:

/**
  * @brief This function handles System tick timer.
  */
void SysTick_Handler(void)
{
 800094c:	b480      	push	{r7}
 800094e:	af00      	add	r7, sp, #0
  /* USER CODE END SysTick_IRQn 0 */

  /* USER CODE BEGIN SysTick_IRQn 1 */

  /* USER CODE END SysTick_IRQn 1 */
}
 8000950:	bf00      	nop
 8000952:	46bd      	mov	sp, r7
 8000954:	f85d 7b04 	ldr.w	r7, [sp], #4
 8000958:	4770      	bx	lr
	...

0800095c <EXTI3_IRQHandler>:

/**
  * @brief This function handles EXTI line 3 interrupt.
  */
void EXTI3_IRQHandler(void)
{
 800095c:	b580      	push	{r7, lr}
 800095e:	b082      	sub	sp, #8
 8000960:	af02      	add	r7, sp, #8
  /* USER CODE BEGIN EXTI3_IRQn 0 */


  /* USER CODE END EXTI3_IRQn 0 */
  if (LL_EXTI_IsActiveFlag_0_31(LL_EXTI_LINE_3) != RESET)
 8000962:	2008      	movs	r0, #8
 8000964:	f7ff ffa4 	bl	80008b0 <LL_EXTI_IsActiveFlag_0_31>
 8000968:	4603      	mov	r3, r0
 800096a:	2b00      	cmp	r3, #0
 800096c:	d015      	beq.n	800099a <EXTI3_IRQHandler+0x3e>
  {
    LL_EXTI_ClearFlag_0_31(LL_EXTI_LINE_3);
 800096e:	2008      	movs	r0, #8
 8000970:	f7ff ffb4 	bl	80008dc <LL_EXTI_ClearFlag_0_31>
    /* USER CODE BEGIN LL_EXTI_LINE_3 */
    if(checkButtonState(GPIO_PORT_BUTTON,
 8000974:	2314      	movs	r3, #20
 8000976:	9300      	str	r3, [sp, #0]
 8000978:	231e      	movs	r3, #30
 800097a:	2201      	movs	r2, #1
 800097c:	2103      	movs	r1, #3
 800097e:	f04f 4090 	mov.w	r0, #1207959552	; 0x48000000
 8000982:	f7ff ff59 	bl	8000838 <checkButtonState>
 8000986:	4603      	mov	r3, r0
 8000988:	2b00      	cmp	r3, #0
 800098a:	d006      	beq.n	800099a <EXTI3_IRQHandler+0x3e>
    						GPIO_PIN_BUTTON,
    						BUTTON_EXTI_TRIGGER,
    						BUTTON_EXTI_SAMPLES_WINDOW,
    						BUTTON_EXTI_SAMPLES_REQUIRED))
    	{
    		switch_state ^= 1;
 800098c:	4b04      	ldr	r3, [pc, #16]	; (80009a0 <EXTI3_IRQHandler+0x44>)
 800098e:	781b      	ldrb	r3, [r3, #0]
 8000990:	f083 0301 	eor.w	r3, r3, #1
 8000994:	b2da      	uxtb	r2, r3
 8000996:	4b02      	ldr	r3, [pc, #8]	; (80009a0 <EXTI3_IRQHandler+0x44>)
 8000998:	701a      	strb	r2, [r3, #0]
    /* USER CODE END LL_EXTI_LINE_3 */
  }
  /* USER CODE BEGIN EXTI3_IRQn 1 */

  /* USER CODE END EXTI3_IRQn 1 */
}
 800099a:	bf00      	nop
 800099c:	46bd      	mov	sp, r7
 800099e:	bd80      	pop	{r7, pc}
 80009a0:	20000020 	.word	0x20000020

080009a4 <SystemInit>:
  * @brief  Setup the microcontroller system
  * @param  None
  * @retval None
  */
void SystemInit(void)
{
 80009a4:	b480      	push	{r7}
 80009a6:	af00      	add	r7, sp, #0
/* FPU settings --------------------------------------------------------------*/
#if (__FPU_PRESENT == 1) && (__FPU_USED == 1)
  SCB->CPACR |= ((3UL << 10*2)|(3UL << 11*2));  /* set CP10 and CP11 Full Access */
 80009a8:	4b08      	ldr	r3, [pc, #32]	; (80009cc <SystemInit+0x28>)
 80009aa:	f8d3 3088 	ldr.w	r3, [r3, #136]	; 0x88
 80009ae:	4a07      	ldr	r2, [pc, #28]	; (80009cc <SystemInit+0x28>)
 80009b0:	f443 0370 	orr.w	r3, r3, #15728640	; 0xf00000
 80009b4:	f8c2 3088 	str.w	r3, [r2, #136]	; 0x88
#endif

#ifdef VECT_TAB_SRAM
  SCB->VTOR = SRAM_BASE | VECT_TAB_OFFSET; /* Vector Table Relocation in Internal SRAM */
#else
  SCB->VTOR = FLASH_BASE | VECT_TAB_OFFSET; /* Vector Table Relocation in Internal FLASH */
 80009b8:	4b04      	ldr	r3, [pc, #16]	; (80009cc <SystemInit+0x28>)
 80009ba:	f04f 6200 	mov.w	r2, #134217728	; 0x8000000
 80009be:	609a      	str	r2, [r3, #8]
#endif
}
 80009c0:	bf00      	nop
 80009c2:	46bd      	mov	sp, r7
 80009c4:	f85d 7b04 	ldr.w	r7, [sp], #4
 80009c8:	4770      	bx	lr
 80009ca:	bf00      	nop
 80009cc:	e000ed00 	.word	0xe000ed00

080009d0 <Reset_Handler>:

    .section	.text.Reset_Handler
	.weak	Reset_Handler
	.type	Reset_Handler, %function
Reset_Handler:
  ldr   sp, =_estack    /* Atollic update: set stack pointer */
 80009d0:	f8df d034 	ldr.w	sp, [pc, #52]	; 8000a08 <LoopForever+0x2>

/* Copy the data segment initializers from flash to SRAM */
  movs	r1, #0
 80009d4:	2100      	movs	r1, #0
  b	LoopCopyDataInit
 80009d6:	e003      	b.n	80009e0 <LoopCopyDataInit>

080009d8 <CopyDataInit>:

CopyDataInit:
	ldr	r3, =_sidata
 80009d8:	4b0c      	ldr	r3, [pc, #48]	; (8000a0c <LoopForever+0x6>)
	ldr	r3, [r3, r1]
 80009da:	585b      	ldr	r3, [r3, r1]
	str	r3, [r0, r1]
 80009dc:	5043      	str	r3, [r0, r1]
	adds	r1, r1, #4
 80009de:	3104      	adds	r1, #4

080009e0 <LoopCopyDataInit>:

LoopCopyDataInit:
	ldr	r0, =_sdata
 80009e0:	480b      	ldr	r0, [pc, #44]	; (8000a10 <LoopForever+0xa>)
	ldr	r3, =_edata
 80009e2:	4b0c      	ldr	r3, [pc, #48]	; (8000a14 <LoopForever+0xe>)
	adds	r2, r0, r1
 80009e4:	1842      	adds	r2, r0, r1
	cmp	r2, r3
 80009e6:	429a      	cmp	r2, r3
	bcc	CopyDataInit
 80009e8:	d3f6      	bcc.n	80009d8 <CopyDataInit>
	ldr	r2, =_sbss
 80009ea:	4a0b      	ldr	r2, [pc, #44]	; (8000a18 <LoopForever+0x12>)
	b	LoopFillZerobss
 80009ec:	e002      	b.n	80009f4 <LoopFillZerobss>

080009ee <FillZerobss>:
/* Zero fill the bss segment. */
FillZerobss:
	movs	r3, #0
 80009ee:	2300      	movs	r3, #0
	str	r3, [r2], #4
 80009f0:	f842 3b04 	str.w	r3, [r2], #4

080009f4 <LoopFillZerobss>:

LoopFillZerobss:
	ldr	r3, = _ebss
 80009f4:	4b09      	ldr	r3, [pc, #36]	; (8000a1c <LoopForever+0x16>)
	cmp	r2, r3
 80009f6:	429a      	cmp	r2, r3
	bcc	FillZerobss
 80009f8:	d3f9      	bcc.n	80009ee <FillZerobss>

/* Call the clock system intitialization function.*/
    bl  SystemInit
 80009fa:	f7ff ffd3 	bl	80009a4 <SystemInit>
/* Call static constructors */
    bl __libc_init_array
 80009fe:	f000 fbfb 	bl	80011f8 <__libc_init_array>
/* Call the application's entry point.*/
	bl	main
 8000a02:	f7ff feab 	bl	800075c <main>

08000a06 <LoopForever>:

LoopForever:
    b LoopForever
 8000a06:	e7fe      	b.n	8000a06 <LoopForever>
  ldr   sp, =_estack    /* Atollic update: set stack pointer */
 8000a08:	20003000 	.word	0x20003000
	ldr	r3, =_sidata
 8000a0c:	08001260 	.word	0x08001260
	ldr	r0, =_sdata
 8000a10:	20000000 	.word	0x20000000
	ldr	r3, =_edata
 8000a14:	20000004 	.word	0x20000004
	ldr	r2, =_sbss
 8000a18:	20000004 	.word	0x20000004
	ldr	r3, = _ebss
 8000a1c:	20000024 	.word	0x20000024

08000a20 <ADC1_2_IRQHandler>:
 * @retval : None
*/
    .section	.text.Default_Handler,"ax",%progbits
Default_Handler:
Infinite_Loop:
	b	Infinite_Loop
 8000a20:	e7fe      	b.n	8000a20 <ADC1_2_IRQHandler>
	...

08000a24 <LL_EXTI_EnableIT_0_31>:
{
 8000a24:	b480      	push	{r7}
 8000a26:	b083      	sub	sp, #12
 8000a28:	af00      	add	r7, sp, #0
 8000a2a:	6078      	str	r0, [r7, #4]
  SET_BIT(EXTI->IMR, ExtiLine);
 8000a2c:	4b05      	ldr	r3, [pc, #20]	; (8000a44 <LL_EXTI_EnableIT_0_31+0x20>)
 8000a2e:	681a      	ldr	r2, [r3, #0]
 8000a30:	4904      	ldr	r1, [pc, #16]	; (8000a44 <LL_EXTI_EnableIT_0_31+0x20>)
 8000a32:	687b      	ldr	r3, [r7, #4]
 8000a34:	4313      	orrs	r3, r2
 8000a36:	600b      	str	r3, [r1, #0]
}
 8000a38:	bf00      	nop
 8000a3a:	370c      	adds	r7, #12
 8000a3c:	46bd      	mov	sp, r7
 8000a3e:	f85d 7b04 	ldr.w	r7, [sp], #4
 8000a42:	4770      	bx	lr
 8000a44:	40010400 	.word	0x40010400

08000a48 <LL_EXTI_EnableIT_32_63>:
{
 8000a48:	b480      	push	{r7}
 8000a4a:	b083      	sub	sp, #12
 8000a4c:	af00      	add	r7, sp, #0
 8000a4e:	6078      	str	r0, [r7, #4]
  SET_BIT(EXTI->IMR2, ExtiLine);
 8000a50:	4b05      	ldr	r3, [pc, #20]	; (8000a68 <LL_EXTI_EnableIT_32_63+0x20>)
 8000a52:	6a1a      	ldr	r2, [r3, #32]
 8000a54:	4904      	ldr	r1, [pc, #16]	; (8000a68 <LL_EXTI_EnableIT_32_63+0x20>)
 8000a56:	687b      	ldr	r3, [r7, #4]
 8000a58:	4313      	orrs	r3, r2
 8000a5a:	620b      	str	r3, [r1, #32]
}
 8000a5c:	bf00      	nop
 8000a5e:	370c      	adds	r7, #12
 8000a60:	46bd      	mov	sp, r7
 8000a62:	f85d 7b04 	ldr.w	r7, [sp], #4
 8000a66:	4770      	bx	lr
 8000a68:	40010400 	.word	0x40010400

08000a6c <LL_EXTI_DisableIT_0_31>:
{
 8000a6c:	b480      	push	{r7}
 8000a6e:	b083      	sub	sp, #12
 8000a70:	af00      	add	r7, sp, #0
 8000a72:	6078      	str	r0, [r7, #4]
  CLEAR_BIT(EXTI->IMR, ExtiLine);
 8000a74:	4b06      	ldr	r3, [pc, #24]	; (8000a90 <LL_EXTI_DisableIT_0_31+0x24>)
 8000a76:	681a      	ldr	r2, [r3, #0]
 8000a78:	687b      	ldr	r3, [r7, #4]
 8000a7a:	43db      	mvns	r3, r3
 8000a7c:	4904      	ldr	r1, [pc, #16]	; (8000a90 <LL_EXTI_DisableIT_0_31+0x24>)
 8000a7e:	4013      	ands	r3, r2
 8000a80:	600b      	str	r3, [r1, #0]
}
 8000a82:	bf00      	nop
 8000a84:	370c      	adds	r7, #12
 8000a86:	46bd      	mov	sp, r7
 8000a88:	f85d 7b04 	ldr.w	r7, [sp], #4
 8000a8c:	4770      	bx	lr
 8000a8e:	bf00      	nop
 8000a90:	40010400 	.word	0x40010400

08000a94 <LL_EXTI_DisableIT_32_63>:
{
 8000a94:	b480      	push	{r7}
 8000a96:	b083      	sub	sp, #12
 8000a98:	af00      	add	r7, sp, #0
 8000a9a:	6078      	str	r0, [r7, #4]
  CLEAR_BIT(EXTI->IMR2, ExtiLine);
 8000a9c:	4b06      	ldr	r3, [pc, #24]	; (8000ab8 <LL_EXTI_DisableIT_32_63+0x24>)
 8000a9e:	6a1a      	ldr	r2, [r3, #32]
 8000aa0:	687b      	ldr	r3, [r7, #4]
 8000aa2:	43db      	mvns	r3, r3
 8000aa4:	4904      	ldr	r1, [pc, #16]	; (8000ab8 <LL_EXTI_DisableIT_32_63+0x24>)
 8000aa6:	4013      	ands	r3, r2
 8000aa8:	620b      	str	r3, [r1, #32]
}
 8000aaa:	bf00      	nop
 8000aac:	370c      	adds	r7, #12
 8000aae:	46bd      	mov	sp, r7
 8000ab0:	f85d 7b04 	ldr.w	r7, [sp], #4
 8000ab4:	4770      	bx	lr
 8000ab6:	bf00      	nop
 8000ab8:	40010400 	.word	0x40010400

08000abc <LL_EXTI_EnableEvent_0_31>:
{
 8000abc:	b480      	push	{r7}
 8000abe:	b083      	sub	sp, #12
 8000ac0:	af00      	add	r7, sp, #0
 8000ac2:	6078      	str	r0, [r7, #4]
  SET_BIT(EXTI->EMR, ExtiLine);
 8000ac4:	4b05      	ldr	r3, [pc, #20]	; (8000adc <LL_EXTI_EnableEvent_0_31+0x20>)
 8000ac6:	685a      	ldr	r2, [r3, #4]
 8000ac8:	4904      	ldr	r1, [pc, #16]	; (8000adc <LL_EXTI_EnableEvent_0_31+0x20>)
 8000aca:	687b      	ldr	r3, [r7, #4]
 8000acc:	4313      	orrs	r3, r2
 8000ace:	604b      	str	r3, [r1, #4]
}
 8000ad0:	bf00      	nop
 8000ad2:	370c      	adds	r7, #12
 8000ad4:	46bd      	mov	sp, r7
 8000ad6:	f85d 7b04 	ldr.w	r7, [sp], #4
 8000ada:	4770      	bx	lr
 8000adc:	40010400 	.word	0x40010400

08000ae0 <LL_EXTI_EnableEvent_32_63>:
{
 8000ae0:	b480      	push	{r7}
 8000ae2:	b083      	sub	sp, #12
 8000ae4:	af00      	add	r7, sp, #0
 8000ae6:	6078      	str	r0, [r7, #4]
  SET_BIT(EXTI->EMR2, ExtiLine);
 8000ae8:	4b05      	ldr	r3, [pc, #20]	; (8000b00 <LL_EXTI_EnableEvent_32_63+0x20>)
 8000aea:	6a5a      	ldr	r2, [r3, #36]	; 0x24
 8000aec:	4904      	ldr	r1, [pc, #16]	; (8000b00 <LL_EXTI_EnableEvent_32_63+0x20>)
 8000aee:	687b      	ldr	r3, [r7, #4]
 8000af0:	4313      	orrs	r3, r2
 8000af2:	624b      	str	r3, [r1, #36]	; 0x24
}
 8000af4:	bf00      	nop
 8000af6:	370c      	adds	r7, #12
 8000af8:	46bd      	mov	sp, r7
 8000afa:	f85d 7b04 	ldr.w	r7, [sp], #4
 8000afe:	4770      	bx	lr
 8000b00:	40010400 	.word	0x40010400

08000b04 <LL_EXTI_DisableEvent_0_31>:
{
 8000b04:	b480      	push	{r7}
 8000b06:	b083      	sub	sp, #12
 8000b08:	af00      	add	r7, sp, #0
 8000b0a:	6078      	str	r0, [r7, #4]
  CLEAR_BIT(EXTI->EMR, ExtiLine);
 8000b0c:	4b06      	ldr	r3, [pc, #24]	; (8000b28 <LL_EXTI_DisableEvent_0_31+0x24>)
 8000b0e:	685a      	ldr	r2, [r3, #4]
 8000b10:	687b      	ldr	r3, [r7, #4]
 8000b12:	43db      	mvns	r3, r3
 8000b14:	4904      	ldr	r1, [pc, #16]	; (8000b28 <LL_EXTI_DisableEvent_0_31+0x24>)
 8000b16:	4013      	ands	r3, r2
 8000b18:	604b      	str	r3, [r1, #4]
}
 8000b1a:	bf00      	nop
 8000b1c:	370c      	adds	r7, #12
 8000b1e:	46bd      	mov	sp, r7
 8000b20:	f85d 7b04 	ldr.w	r7, [sp], #4
 8000b24:	4770      	bx	lr
 8000b26:	bf00      	nop
 8000b28:	40010400 	.word	0x40010400

08000b2c <LL_EXTI_DisableEvent_32_63>:
{
 8000b2c:	b480      	push	{r7}
 8000b2e:	b083      	sub	sp, #12
 8000b30:	af00      	add	r7, sp, #0
 8000b32:	6078      	str	r0, [r7, #4]
  CLEAR_BIT(EXTI->EMR2, ExtiLine);
 8000b34:	4b06      	ldr	r3, [pc, #24]	; (8000b50 <LL_EXTI_DisableEvent_32_63+0x24>)
 8000b36:	6a5a      	ldr	r2, [r3, #36]	; 0x24
 8000b38:	687b      	ldr	r3, [r7, #4]
 8000b3a:	43db      	mvns	r3, r3
 8000b3c:	4904      	ldr	r1, [pc, #16]	; (8000b50 <LL_EXTI_DisableEvent_32_63+0x24>)
 8000b3e:	4013      	ands	r3, r2
 8000b40:	624b      	str	r3, [r1, #36]	; 0x24
}
 8000b42:	bf00      	nop
 8000b44:	370c      	adds	r7, #12
 8000b46:	46bd      	mov	sp, r7
 8000b48:	f85d 7b04 	ldr.w	r7, [sp], #4
 8000b4c:	4770      	bx	lr
 8000b4e:	bf00      	nop
 8000b50:	40010400 	.word	0x40010400

08000b54 <LL_EXTI_EnableRisingTrig_0_31>:
{
 8000b54:	b480      	push	{r7}
 8000b56:	b083      	sub	sp, #12
 8000b58:	af00      	add	r7, sp, #0
 8000b5a:	6078      	str	r0, [r7, #4]
  SET_BIT(EXTI->RTSR, ExtiLine);
 8000b5c:	4b05      	ldr	r3, [pc, #20]	; (8000b74 <LL_EXTI_EnableRisingTrig_0_31+0x20>)
 8000b5e:	689a      	ldr	r2, [r3, #8]
 8000b60:	4904      	ldr	r1, [pc, #16]	; (8000b74 <LL_EXTI_EnableRisingTrig_0_31+0x20>)
 8000b62:	687b      	ldr	r3, [r7, #4]
 8000b64:	4313      	orrs	r3, r2
 8000b66:	608b      	str	r3, [r1, #8]
}
 8000b68:	bf00      	nop
 8000b6a:	370c      	adds	r7, #12
 8000b6c:	46bd      	mov	sp, r7
 8000b6e:	f85d 7b04 	ldr.w	r7, [sp], #4
 8000b72:	4770      	bx	lr
 8000b74:	40010400 	.word	0x40010400

08000b78 <LL_EXTI_EnableRisingTrig_32_63>:
{
 8000b78:	b480      	push	{r7}
 8000b7a:	b083      	sub	sp, #12
 8000b7c:	af00      	add	r7, sp, #0
 8000b7e:	6078      	str	r0, [r7, #4]
  SET_BIT(EXTI->RTSR2, ExtiLine);
 8000b80:	4b05      	ldr	r3, [pc, #20]	; (8000b98 <LL_EXTI_EnableRisingTrig_32_63+0x20>)
 8000b82:	6a9a      	ldr	r2, [r3, #40]	; 0x28
 8000b84:	4904      	ldr	r1, [pc, #16]	; (8000b98 <LL_EXTI_EnableRisingTrig_32_63+0x20>)
 8000b86:	687b      	ldr	r3, [r7, #4]
 8000b88:	4313      	orrs	r3, r2
 8000b8a:	628b      	str	r3, [r1, #40]	; 0x28
}
 8000b8c:	bf00      	nop
 8000b8e:	370c      	adds	r7, #12
 8000b90:	46bd      	mov	sp, r7
 8000b92:	f85d 7b04 	ldr.w	r7, [sp], #4
 8000b96:	4770      	bx	lr
 8000b98:	40010400 	.word	0x40010400

08000b9c <LL_EXTI_DisableRisingTrig_0_31>:
{
 8000b9c:	b480      	push	{r7}
 8000b9e:	b083      	sub	sp, #12
 8000ba0:	af00      	add	r7, sp, #0
 8000ba2:	6078      	str	r0, [r7, #4]
  CLEAR_BIT(EXTI->RTSR, ExtiLine);
 8000ba4:	4b06      	ldr	r3, [pc, #24]	; (8000bc0 <LL_EXTI_DisableRisingTrig_0_31+0x24>)
 8000ba6:	689a      	ldr	r2, [r3, #8]
 8000ba8:	687b      	ldr	r3, [r7, #4]
 8000baa:	43db      	mvns	r3, r3
 8000bac:	4904      	ldr	r1, [pc, #16]	; (8000bc0 <LL_EXTI_DisableRisingTrig_0_31+0x24>)
 8000bae:	4013      	ands	r3, r2
 8000bb0:	608b      	str	r3, [r1, #8]
}
 8000bb2:	bf00      	nop
 8000bb4:	370c      	adds	r7, #12
 8000bb6:	46bd      	mov	sp, r7
 8000bb8:	f85d 7b04 	ldr.w	r7, [sp], #4
 8000bbc:	4770      	bx	lr
 8000bbe:	bf00      	nop
 8000bc0:	40010400 	.word	0x40010400

08000bc4 <LL_EXTI_DisableRisingTrig_32_63>:
{
 8000bc4:	b480      	push	{r7}
 8000bc6:	b083      	sub	sp, #12
 8000bc8:	af00      	add	r7, sp, #0
 8000bca:	6078      	str	r0, [r7, #4]
  CLEAR_BIT(EXTI->RTSR2, ExtiLine);
 8000bcc:	4b06      	ldr	r3, [pc, #24]	; (8000be8 <LL_EXTI_DisableRisingTrig_32_63+0x24>)
 8000bce:	6a9a      	ldr	r2, [r3, #40]	; 0x28
 8000bd0:	687b      	ldr	r3, [r7, #4]
 8000bd2:	43db      	mvns	r3, r3
 8000bd4:	4904      	ldr	r1, [pc, #16]	; (8000be8 <LL_EXTI_DisableRisingTrig_32_63+0x24>)
 8000bd6:	4013      	ands	r3, r2
 8000bd8:	628b      	str	r3, [r1, #40]	; 0x28
}
 8000bda:	bf00      	nop
 8000bdc:	370c      	adds	r7, #12
 8000bde:	46bd      	mov	sp, r7
 8000be0:	f85d 7b04 	ldr.w	r7, [sp], #4
 8000be4:	4770      	bx	lr
 8000be6:	bf00      	nop
 8000be8:	40010400 	.word	0x40010400

08000bec <LL_EXTI_EnableFallingTrig_0_31>:
{
 8000bec:	b480      	push	{r7}
 8000bee:	b083      	sub	sp, #12
 8000bf0:	af00      	add	r7, sp, #0
 8000bf2:	6078      	str	r0, [r7, #4]
  SET_BIT(EXTI->FTSR, ExtiLine);
 8000bf4:	4b05      	ldr	r3, [pc, #20]	; (8000c0c <LL_EXTI_EnableFallingTrig_0_31+0x20>)
 8000bf6:	68da      	ldr	r2, [r3, #12]
 8000bf8:	4904      	ldr	r1, [pc, #16]	; (8000c0c <LL_EXTI_EnableFallingTrig_0_31+0x20>)
 8000bfa:	687b      	ldr	r3, [r7, #4]
 8000bfc:	4313      	orrs	r3, r2
 8000bfe:	60cb      	str	r3, [r1, #12]
}
 8000c00:	bf00      	nop
 8000c02:	370c      	adds	r7, #12
 8000c04:	46bd      	mov	sp, r7
 8000c06:	f85d 7b04 	ldr.w	r7, [sp], #4
 8000c0a:	4770      	bx	lr
 8000c0c:	40010400 	.word	0x40010400

08000c10 <LL_EXTI_EnableFallingTrig_32_63>:
{
 8000c10:	b480      	push	{r7}
 8000c12:	b083      	sub	sp, #12
 8000c14:	af00      	add	r7, sp, #0
 8000c16:	6078      	str	r0, [r7, #4]
  SET_BIT(EXTI->FTSR2, ExtiLine);
 8000c18:	4b05      	ldr	r3, [pc, #20]	; (8000c30 <LL_EXTI_EnableFallingTrig_32_63+0x20>)
 8000c1a:	6ada      	ldr	r2, [r3, #44]	; 0x2c
 8000c1c:	4904      	ldr	r1, [pc, #16]	; (8000c30 <LL_EXTI_EnableFallingTrig_32_63+0x20>)
 8000c1e:	687b      	ldr	r3, [r7, #4]
 8000c20:	4313      	orrs	r3, r2
 8000c22:	62cb      	str	r3, [r1, #44]	; 0x2c
}
 8000c24:	bf00      	nop
 8000c26:	370c      	adds	r7, #12
 8000c28:	46bd      	mov	sp, r7
 8000c2a:	f85d 7b04 	ldr.w	r7, [sp], #4
 8000c2e:	4770      	bx	lr
 8000c30:	40010400 	.word	0x40010400

08000c34 <LL_EXTI_DisableFallingTrig_0_31>:
{
 8000c34:	b480      	push	{r7}
 8000c36:	b083      	sub	sp, #12
 8000c38:	af00      	add	r7, sp, #0
 8000c3a:	6078      	str	r0, [r7, #4]
  CLEAR_BIT(EXTI->FTSR, ExtiLine);
 8000c3c:	4b06      	ldr	r3, [pc, #24]	; (8000c58 <LL_EXTI_DisableFallingTrig_0_31+0x24>)
 8000c3e:	68da      	ldr	r2, [r3, #12]
 8000c40:	687b      	ldr	r3, [r7, #4]
 8000c42:	43db      	mvns	r3, r3
 8000c44:	4904      	ldr	r1, [pc, #16]	; (8000c58 <LL_EXTI_DisableFallingTrig_0_31+0x24>)
 8000c46:	4013      	ands	r3, r2
 8000c48:	60cb      	str	r3, [r1, #12]
}
 8000c4a:	bf00      	nop
 8000c4c:	370c      	adds	r7, #12
 8000c4e:	46bd      	mov	sp, r7
 8000c50:	f85d 7b04 	ldr.w	r7, [sp], #4
 8000c54:	4770      	bx	lr
 8000c56:	bf00      	nop
 8000c58:	40010400 	.word	0x40010400

08000c5c <LL_EXTI_DisableFallingTrig_32_63>:
{
 8000c5c:	b480      	push	{r7}
 8000c5e:	b083      	sub	sp, #12
 8000c60:	af00      	add	r7, sp, #0
 8000c62:	6078      	str	r0, [r7, #4]
  CLEAR_BIT(EXTI->FTSR2, ExtiLine);
 8000c64:	4b06      	ldr	r3, [pc, #24]	; (8000c80 <LL_EXTI_DisableFallingTrig_32_63+0x24>)
 8000c66:	6ada      	ldr	r2, [r3, #44]	; 0x2c
 8000c68:	687b      	ldr	r3, [r7, #4]
 8000c6a:	43db      	mvns	r3, r3
 8000c6c:	4904      	ldr	r1, [pc, #16]	; (8000c80 <LL_EXTI_DisableFallingTrig_32_63+0x24>)
 8000c6e:	4013      	ands	r3, r2
 8000c70:	62cb      	str	r3, [r1, #44]	; 0x2c
}
 8000c72:	bf00      	nop
 8000c74:	370c      	adds	r7, #12
 8000c76:	46bd      	mov	sp, r7
 8000c78:	f85d 7b04 	ldr.w	r7, [sp], #4
 8000c7c:	4770      	bx	lr
 8000c7e:	bf00      	nop
 8000c80:	40010400 	.word	0x40010400

08000c84 <LL_EXTI_Init>:
  * @retval An ErrorStatus enumeration value:
  *          - SUCCESS: EXTI registers are initialized
  *          - ERROR: not applicable
  */
uint32_t LL_EXTI_Init(LL_EXTI_InitTypeDef *EXTI_InitStruct)
{
 8000c84:	b580      	push	{r7, lr}
 8000c86:	b084      	sub	sp, #16
 8000c88:	af00      	add	r7, sp, #0
 8000c8a:	6078      	str	r0, [r7, #4]
  ErrorStatus status = SUCCESS;
 8000c8c:	2300      	movs	r3, #0
 8000c8e:	73fb      	strb	r3, [r7, #15]
#endif
  assert_param(IS_FUNCTIONAL_STATE(EXTI_InitStruct->LineCommand));
  assert_param(IS_LL_EXTI_MODE(EXTI_InitStruct->Mode));

  /* ENABLE LineCommand */
  if (EXTI_InitStruct->LineCommand != DISABLE)
 8000c90:	687b      	ldr	r3, [r7, #4]
 8000c92:	7a1b      	ldrb	r3, [r3, #8]
 8000c94:	2b00      	cmp	r3, #0
 8000c96:	f000 80c2 	beq.w	8000e1e <LL_EXTI_Init+0x19a>
  {
    assert_param(IS_LL_EXTI_TRIGGER(EXTI_InitStruct->Trigger));

    /* Configure EXTI Lines in range from 0 to 31 */
    if (EXTI_InitStruct->Line_0_31 != LL_EXTI_LINE_NONE)
 8000c9a:	687b      	ldr	r3, [r7, #4]
 8000c9c:	681b      	ldr	r3, [r3, #0]
 8000c9e:	2b00      	cmp	r3, #0
 8000ca0:	d05b      	beq.n	8000d5a <LL_EXTI_Init+0xd6>
    {
      switch (EXTI_InitStruct->Mode)
 8000ca2:	687b      	ldr	r3, [r7, #4]
 8000ca4:	7a5b      	ldrb	r3, [r3, #9]
 8000ca6:	2b01      	cmp	r3, #1
 8000ca8:	d00e      	beq.n	8000cc8 <LL_EXTI_Init+0x44>
 8000caa:	2b02      	cmp	r3, #2
 8000cac:	d017      	beq.n	8000cde <LL_EXTI_Init+0x5a>
 8000cae:	2b00      	cmp	r3, #0
 8000cb0:	d120      	bne.n	8000cf4 <LL_EXTI_Init+0x70>
      {
        case LL_EXTI_MODE_IT:
          /* First Disable Event on provided Lines */
          LL_EXTI_DisableEvent_0_31(EXTI_InitStruct->Line_0_31);
 8000cb2:	687b      	ldr	r3, [r7, #4]
 8000cb4:	681b      	ldr	r3, [r3, #0]
 8000cb6:	4618      	mov	r0, r3
 8000cb8:	f7ff ff24 	bl	8000b04 <LL_EXTI_DisableEvent_0_31>
          /* Then Enable IT on provided Lines */
          LL_EXTI_EnableIT_0_31(EXTI_InitStruct->Line_0_31);
 8000cbc:	687b      	ldr	r3, [r7, #4]
 8000cbe:	681b      	ldr	r3, [r3, #0]
 8000cc0:	4618      	mov	r0, r3
 8000cc2:	f7ff feaf 	bl	8000a24 <LL_EXTI_EnableIT_0_31>
          break;
 8000cc6:	e018      	b.n	8000cfa <LL_EXTI_Init+0x76>
        case LL_EXTI_MODE_EVENT:
          /* First Disable IT on provided Lines */
          LL_EXTI_DisableIT_0_31(EXTI_InitStruct->Line_0_31);
 8000cc8:	687b      	ldr	r3, [r7, #4]
 8000cca:	681b      	ldr	r3, [r3, #0]
 8000ccc:	4618      	mov	r0, r3
 8000cce:	f7ff fecd 	bl	8000a6c <LL_EXTI_DisableIT_0_31>
          /* Then Enable Event on provided Lines */
          LL_EXTI_EnableEvent_0_31(EXTI_InitStruct->Line_0_31);
 8000cd2:	687b      	ldr	r3, [r7, #4]
 8000cd4:	681b      	ldr	r3, [r3, #0]
 8000cd6:	4618      	mov	r0, r3
 8000cd8:	f7ff fef0 	bl	8000abc <LL_EXTI_EnableEvent_0_31>
          break;
 8000cdc:	e00d      	b.n	8000cfa <LL_EXTI_Init+0x76>
        case LL_EXTI_MODE_IT_EVENT:
          /* Directly Enable IT & Event on provided Lines */
          LL_EXTI_EnableIT_0_31(EXTI_InitStruct->Line_0_31);
 8000cde:	687b      	ldr	r3, [r7, #4]
 8000ce0:	681b      	ldr	r3, [r3, #0]
 8000ce2:	4618      	mov	r0, r3
 8000ce4:	f7ff fe9e 	bl	8000a24 <LL_EXTI_EnableIT_0_31>
          LL_EXTI_EnableEvent_0_31(EXTI_InitStruct->Line_0_31);
 8000ce8:	687b      	ldr	r3, [r7, #4]
 8000cea:	681b      	ldr	r3, [r3, #0]
 8000cec:	4618      	mov	r0, r3
 8000cee:	f7ff fee5 	bl	8000abc <LL_EXTI_EnableEvent_0_31>
          break;
 8000cf2:	e002      	b.n	8000cfa <LL_EXTI_Init+0x76>
        default:
          status = ERROR;
 8000cf4:	2301      	movs	r3, #1
 8000cf6:	73fb      	strb	r3, [r7, #15]
          break;
 8000cf8:	bf00      	nop
      }
      if (EXTI_InitStruct->Trigger != LL_EXTI_TRIGGER_NONE)
 8000cfa:	687b      	ldr	r3, [r7, #4]
 8000cfc:	7a9b      	ldrb	r3, [r3, #10]
 8000cfe:	2b00      	cmp	r3, #0
 8000d00:	d02b      	beq.n	8000d5a <LL_EXTI_Init+0xd6>
      {
        switch (EXTI_InitStruct->Trigger)
 8000d02:	687b      	ldr	r3, [r7, #4]
 8000d04:	7a9b      	ldrb	r3, [r3, #10]
 8000d06:	2b02      	cmp	r3, #2
 8000d08:	d00e      	beq.n	8000d28 <LL_EXTI_Init+0xa4>
 8000d0a:	2b03      	cmp	r3, #3
 8000d0c:	d017      	beq.n	8000d3e <LL_EXTI_Init+0xba>
 8000d0e:	2b01      	cmp	r3, #1
 8000d10:	d120      	bne.n	8000d54 <LL_EXTI_Init+0xd0>
        {
          case LL_EXTI_TRIGGER_RISING:
            /* First Disable Falling Trigger on provided Lines */
            LL_EXTI_DisableFallingTrig_0_31(EXTI_InitStruct->Line_0_31);
 8000d12:	687b      	ldr	r3, [r7, #4]
 8000d14:	681b      	ldr	r3, [r3, #0]
 8000d16:	4618      	mov	r0, r3
 8000d18:	f7ff ff8c 	bl	8000c34 <LL_EXTI_DisableFallingTrig_0_31>
            /* Then Enable Rising Trigger on provided Lines */
            LL_EXTI_EnableRisingTrig_0_31(EXTI_InitStruct->Line_0_31);
 8000d1c:	687b      	ldr	r3, [r7, #4]
 8000d1e:	681b      	ldr	r3, [r3, #0]
 8000d20:	4618      	mov	r0, r3
 8000d22:	f7ff ff17 	bl	8000b54 <LL_EXTI_EnableRisingTrig_0_31>
            break;
 8000d26:	e019      	b.n	8000d5c <LL_EXTI_Init+0xd8>
          case LL_EXTI_TRIGGER_FALLING:
            /* First Disable Rising Trigger on provided Lines */
            LL_EXTI_DisableRisingTrig_0_31(EXTI_InitStruct->Line_0_31);
 8000d28:	687b      	ldr	r3, [r7, #4]
 8000d2a:	681b      	ldr	r3, [r3, #0]
 8000d2c:	4618      	mov	r0, r3
 8000d2e:	f7ff ff35 	bl	8000b9c <LL_EXTI_DisableRisingTrig_0_31>
            /* Then Enable Falling Trigger on provided Lines */
            LL_EXTI_EnableFallingTrig_0_31(EXTI_InitStruct->Line_0_31);
 8000d32:	687b      	ldr	r3, [r7, #4]
 8000d34:	681b      	ldr	r3, [r3, #0]
 8000d36:	4618      	mov	r0, r3
 8000d38:	f7ff ff58 	bl	8000bec <LL_EXTI_EnableFallingTrig_0_31>
            break;
 8000d3c:	e00e      	b.n	8000d5c <LL_EXTI_Init+0xd8>
          case LL_EXTI_TRIGGER_RISING_FALLING:
            LL_EXTI_EnableRisingTrig_0_31(EXTI_InitStruct->Line_0_31);
 8000d3e:	687b      	ldr	r3, [r7, #4]
 8000d40:	681b      	ldr	r3, [r3, #0]
 8000d42:	4618      	mov	r0, r3
 8000d44:	f7ff ff06 	bl	8000b54 <LL_EXTI_EnableRisingTrig_0_31>
            LL_EXTI_EnableFallingTrig_0_31(EXTI_InitStruct->Line_0_31);
 8000d48:	687b      	ldr	r3, [r7, #4]
 8000d4a:	681b      	ldr	r3, [r3, #0]
 8000d4c:	4618      	mov	r0, r3
 8000d4e:	f7ff ff4d 	bl	8000bec <LL_EXTI_EnableFallingTrig_0_31>
            break;
 8000d52:	e003      	b.n	8000d5c <LL_EXTI_Init+0xd8>
          default:
            status = ERROR;
 8000d54:	2301      	movs	r3, #1
 8000d56:	73fb      	strb	r3, [r7, #15]
            break;
 8000d58:	e000      	b.n	8000d5c <LL_EXTI_Init+0xd8>
        }
      }
 8000d5a:	bf00      	nop
    }
#if defined(EXTI_32_63_SUPPORT)
    /* Configure EXTI Lines in range from 32 to 63 */
    if (EXTI_InitStruct->Line_32_63 != LL_EXTI_LINE_NONE)
 8000d5c:	687b      	ldr	r3, [r7, #4]
 8000d5e:	685b      	ldr	r3, [r3, #4]
 8000d60:	2b00      	cmp	r3, #0
 8000d62:	d071      	beq.n	8000e48 <LL_EXTI_Init+0x1c4>
    {
      switch (EXTI_InitStruct->Mode)
 8000d64:	687b      	ldr	r3, [r7, #4]
 8000d66:	7a5b      	ldrb	r3, [r3, #9]
 8000d68:	2b01      	cmp	r3, #1
 8000d6a:	d00e      	beq.n	8000d8a <LL_EXTI_Init+0x106>
 8000d6c:	2b02      	cmp	r3, #2
 8000d6e:	d017      	beq.n	8000da0 <LL_EXTI_Init+0x11c>
 8000d70:	2b00      	cmp	r3, #0
 8000d72:	d120      	bne.n	8000db6 <LL_EXTI_Init+0x132>
      {
        case LL_EXTI_MODE_IT:
          /* First Disable Event on provided Lines */
          LL_EXTI_DisableEvent_32_63(EXTI_InitStruct->Line_32_63);
 8000d74:	687b      	ldr	r3, [r7, #4]
 8000d76:	685b      	ldr	r3, [r3, #4]
 8000d78:	4618      	mov	r0, r3
 8000d7a:	f7ff fed7 	bl	8000b2c <LL_EXTI_DisableEvent_32_63>
          /* Then Enable IT on provided Lines */
          LL_EXTI_EnableIT_32_63(EXTI_InitStruct->Line_32_63);
 8000d7e:	687b      	ldr	r3, [r7, #4]
 8000d80:	685b      	ldr	r3, [r3, #4]
 8000d82:	4618      	mov	r0, r3
 8000d84:	f7ff fe60 	bl	8000a48 <LL_EXTI_EnableIT_32_63>
          break;
 8000d88:	e018      	b.n	8000dbc <LL_EXTI_Init+0x138>
        case LL_EXTI_MODE_EVENT:
          /* First Disable IT on provided Lines */
          LL_EXTI_DisableIT_32_63(EXTI_InitStruct->Line_32_63);
 8000d8a:	687b      	ldr	r3, [r7, #4]
 8000d8c:	685b      	ldr	r3, [r3, #4]
 8000d8e:	4618      	mov	r0, r3
 8000d90:	f7ff fe80 	bl	8000a94 <LL_EXTI_DisableIT_32_63>
          /* Then Enable Event on provided Lines */
          LL_EXTI_EnableEvent_32_63(EXTI_InitStruct->Line_32_63);
 8000d94:	687b      	ldr	r3, [r7, #4]
 8000d96:	685b      	ldr	r3, [r3, #4]
 8000d98:	4618      	mov	r0, r3
 8000d9a:	f7ff fea1 	bl	8000ae0 <LL_EXTI_EnableEvent_32_63>
          break;
 8000d9e:	e00d      	b.n	8000dbc <LL_EXTI_Init+0x138>
        case LL_EXTI_MODE_IT_EVENT:
          /* Directly Enable IT & Event on provided Lines */
          LL_EXTI_EnableIT_32_63(EXTI_InitStruct->Line_32_63);
 8000da0:	687b      	ldr	r3, [r7, #4]
 8000da2:	685b      	ldr	r3, [r3, #4]
 8000da4:	4618      	mov	r0, r3
 8000da6:	f7ff fe4f 	bl	8000a48 <LL_EXTI_EnableIT_32_63>
          LL_EXTI_EnableEvent_32_63(EXTI_InitStruct->Line_32_63);
 8000daa:	687b      	ldr	r3, [r7, #4]
 8000dac:	685b      	ldr	r3, [r3, #4]
 8000dae:	4618      	mov	r0, r3
 8000db0:	f7ff fe96 	bl	8000ae0 <LL_EXTI_EnableEvent_32_63>
          break;
 8000db4:	e002      	b.n	8000dbc <LL_EXTI_Init+0x138>
        default:
          status = ERROR;
 8000db6:	2301      	movs	r3, #1
 8000db8:	73fb      	strb	r3, [r7, #15]
          break;
 8000dba:	bf00      	nop
      }
      if (EXTI_InitStruct->Trigger != LL_EXTI_TRIGGER_NONE)
 8000dbc:	687b      	ldr	r3, [r7, #4]
 8000dbe:	7a9b      	ldrb	r3, [r3, #10]
 8000dc0:	2b00      	cmp	r3, #0
 8000dc2:	d041      	beq.n	8000e48 <LL_EXTI_Init+0x1c4>
      {
        switch (EXTI_InitStruct->Trigger)
 8000dc4:	687b      	ldr	r3, [r7, #4]
 8000dc6:	7a9b      	ldrb	r3, [r3, #10]
 8000dc8:	2b02      	cmp	r3, #2
 8000dca:	d00e      	beq.n	8000dea <LL_EXTI_Init+0x166>
 8000dcc:	2b03      	cmp	r3, #3
 8000dce:	d017      	beq.n	8000e00 <LL_EXTI_Init+0x17c>
 8000dd0:	2b01      	cmp	r3, #1
 8000dd2:	d120      	bne.n	8000e16 <LL_EXTI_Init+0x192>
        {
          case LL_EXTI_TRIGGER_RISING:
            /* First Disable Falling Trigger on provided Lines */
            LL_EXTI_DisableFallingTrig_32_63(EXTI_InitStruct->Line_32_63);
 8000dd4:	687b      	ldr	r3, [r7, #4]
 8000dd6:	685b      	ldr	r3, [r3, #4]
 8000dd8:	4618      	mov	r0, r3
 8000dda:	f7ff ff3f 	bl	8000c5c <LL_EXTI_DisableFallingTrig_32_63>
            /* Then Enable IT on provided Lines */
            LL_EXTI_EnableRisingTrig_32_63(EXTI_InitStruct->Line_32_63);
 8000dde:	687b      	ldr	r3, [r7, #4]
 8000de0:	685b      	ldr	r3, [r3, #4]
 8000de2:	4618      	mov	r0, r3
 8000de4:	f7ff fec8 	bl	8000b78 <LL_EXTI_EnableRisingTrig_32_63>
            break;
 8000de8:	e02f      	b.n	8000e4a <LL_EXTI_Init+0x1c6>
          case LL_EXTI_TRIGGER_FALLING:
            /* First Disable Rising Trigger on provided Lines */
            LL_EXTI_DisableRisingTrig_32_63(EXTI_InitStruct->Line_32_63);
 8000dea:	687b      	ldr	r3, [r7, #4]
 8000dec:	685b      	ldr	r3, [r3, #4]
 8000dee:	4618      	mov	r0, r3
 8000df0:	f7ff fee8 	bl	8000bc4 <LL_EXTI_DisableRisingTrig_32_63>
            /* Then Enable Falling Trigger on provided Lines */
            LL_EXTI_EnableFallingTrig_32_63(EXTI_InitStruct->Line_32_63);
 8000df4:	687b      	ldr	r3, [r7, #4]
 8000df6:	685b      	ldr	r3, [r3, #4]
 8000df8:	4618      	mov	r0, r3
 8000dfa:	f7ff ff09 	bl	8000c10 <LL_EXTI_EnableFallingTrig_32_63>
            break;
 8000dfe:	e024      	b.n	8000e4a <LL_EXTI_Init+0x1c6>
          case LL_EXTI_TRIGGER_RISING_FALLING:
            LL_EXTI_EnableRisingTrig_32_63(EXTI_InitStruct->Line_32_63);
 8000e00:	687b      	ldr	r3, [r7, #4]
 8000e02:	685b      	ldr	r3, [r3, #4]
 8000e04:	4618      	mov	r0, r3
 8000e06:	f7ff feb7 	bl	8000b78 <LL_EXTI_EnableRisingTrig_32_63>
            LL_EXTI_EnableFallingTrig_32_63(EXTI_InitStruct->Line_32_63);
 8000e0a:	687b      	ldr	r3, [r7, #4]
 8000e0c:	685b      	ldr	r3, [r3, #4]
 8000e0e:	4618      	mov	r0, r3
 8000e10:	f7ff fefe 	bl	8000c10 <LL_EXTI_EnableFallingTrig_32_63>
            break;
 8000e14:	e019      	b.n	8000e4a <LL_EXTI_Init+0x1c6>
          default:
            status = ERROR;
 8000e16:	2301      	movs	r3, #1
 8000e18:	73fb      	strb	r3, [r7, #15]
            break;
 8000e1a:	bf00      	nop
 8000e1c:	e015      	b.n	8000e4a <LL_EXTI_Init+0x1c6>
  }
  /* DISABLE LineCommand */
  else
  {
    /* De-configure EXTI Lines in range from 0 to 31 */
    LL_EXTI_DisableIT_0_31(EXTI_InitStruct->Line_0_31);
 8000e1e:	687b      	ldr	r3, [r7, #4]
 8000e20:	681b      	ldr	r3, [r3, #0]
 8000e22:	4618      	mov	r0, r3
 8000e24:	f7ff fe22 	bl	8000a6c <LL_EXTI_DisableIT_0_31>
    LL_EXTI_DisableEvent_0_31(EXTI_InitStruct->Line_0_31);
 8000e28:	687b      	ldr	r3, [r7, #4]
 8000e2a:	681b      	ldr	r3, [r3, #0]
 8000e2c:	4618      	mov	r0, r3
 8000e2e:	f7ff fe69 	bl	8000b04 <LL_EXTI_DisableEvent_0_31>
#if defined(EXTI_32_63_SUPPORT)
    /* De-configure EXTI Lines in range from 32 to 63 */
    LL_EXTI_DisableIT_32_63(EXTI_InitStruct->Line_32_63);
 8000e32:	687b      	ldr	r3, [r7, #4]
 8000e34:	685b      	ldr	r3, [r3, #4]
 8000e36:	4618      	mov	r0, r3
 8000e38:	f7ff fe2c 	bl	8000a94 <LL_EXTI_DisableIT_32_63>
    LL_EXTI_DisableEvent_32_63(EXTI_InitStruct->Line_32_63);
 8000e3c:	687b      	ldr	r3, [r7, #4]
 8000e3e:	685b      	ldr	r3, [r3, #4]
 8000e40:	4618      	mov	r0, r3
 8000e42:	f7ff fe73 	bl	8000b2c <LL_EXTI_DisableEvent_32_63>
 8000e46:	e000      	b.n	8000e4a <LL_EXTI_Init+0x1c6>
      }
 8000e48:	bf00      	nop
#endif
  }
  return status;
 8000e4a:	7bfb      	ldrb	r3, [r7, #15]
}
 8000e4c:	4618      	mov	r0, r3
 8000e4e:	3710      	adds	r7, #16
 8000e50:	46bd      	mov	sp, r7
 8000e52:	bd80      	pop	{r7, pc}

08000e54 <LL_GPIO_SetPinMode>:
{
 8000e54:	b480      	push	{r7}
 8000e56:	b089      	sub	sp, #36	; 0x24
 8000e58:	af00      	add	r7, sp, #0
 8000e5a:	60f8      	str	r0, [r7, #12]
 8000e5c:	60b9      	str	r1, [r7, #8]
 8000e5e:	607a      	str	r2, [r7, #4]
  MODIFY_REG(GPIOx->MODER, (GPIO_MODER_MODER0 << (POSITION_VAL(Pin) * 2U)), (Mode << (POSITION_VAL(Pin) * 2U)));
 8000e60:	68fb      	ldr	r3, [r7, #12]
 8000e62:	681a      	ldr	r2, [r3, #0]
 8000e64:	68bb      	ldr	r3, [r7, #8]
 8000e66:	617b      	str	r3, [r7, #20]
   __ASM volatile ("rbit %0, %1" : "=r" (result) : "r" (value) );
 8000e68:	697b      	ldr	r3, [r7, #20]
 8000e6a:	fa93 f3a3 	rbit	r3, r3
 8000e6e:	613b      	str	r3, [r7, #16]
  return result;
 8000e70:	693b      	ldr	r3, [r7, #16]
 8000e72:	fab3 f383 	clz	r3, r3
 8000e76:	b2db      	uxtb	r3, r3
 8000e78:	005b      	lsls	r3, r3, #1
 8000e7a:	2103      	movs	r1, #3
 8000e7c:	fa01 f303 	lsl.w	r3, r1, r3
 8000e80:	43db      	mvns	r3, r3
 8000e82:	401a      	ands	r2, r3
 8000e84:	68bb      	ldr	r3, [r7, #8]
 8000e86:	61fb      	str	r3, [r7, #28]
   __ASM volatile ("rbit %0, %1" : "=r" (result) : "r" (value) );
 8000e88:	69fb      	ldr	r3, [r7, #28]
 8000e8a:	fa93 f3a3 	rbit	r3, r3
 8000e8e:	61bb      	str	r3, [r7, #24]
  return result;
 8000e90:	69bb      	ldr	r3, [r7, #24]
 8000e92:	fab3 f383 	clz	r3, r3
 8000e96:	b2db      	uxtb	r3, r3
 8000e98:	005b      	lsls	r3, r3, #1
 8000e9a:	6879      	ldr	r1, [r7, #4]
 8000e9c:	fa01 f303 	lsl.w	r3, r1, r3
 8000ea0:	431a      	orrs	r2, r3
 8000ea2:	68fb      	ldr	r3, [r7, #12]
 8000ea4:	601a      	str	r2, [r3, #0]
}
 8000ea6:	bf00      	nop
 8000ea8:	3724      	adds	r7, #36	; 0x24
 8000eaa:	46bd      	mov	sp, r7
 8000eac:	f85d 7b04 	ldr.w	r7, [sp], #4
 8000eb0:	4770      	bx	lr

08000eb2 <LL_GPIO_SetPinOutputType>:
{
 8000eb2:	b480      	push	{r7}
 8000eb4:	b085      	sub	sp, #20
 8000eb6:	af00      	add	r7, sp, #0
 8000eb8:	60f8      	str	r0, [r7, #12]
 8000eba:	60b9      	str	r1, [r7, #8]
 8000ebc:	607a      	str	r2, [r7, #4]
  MODIFY_REG(GPIOx->OTYPER, PinMask, (PinMask * OutputType));
 8000ebe:	68fb      	ldr	r3, [r7, #12]
 8000ec0:	685a      	ldr	r2, [r3, #4]
 8000ec2:	68bb      	ldr	r3, [r7, #8]
 8000ec4:	43db      	mvns	r3, r3
 8000ec6:	401a      	ands	r2, r3
 8000ec8:	68bb      	ldr	r3, [r7, #8]
 8000eca:	6879      	ldr	r1, [r7, #4]
 8000ecc:	fb01 f303 	mul.w	r3, r1, r3
 8000ed0:	431a      	orrs	r2, r3
 8000ed2:	68fb      	ldr	r3, [r7, #12]
 8000ed4:	605a      	str	r2, [r3, #4]
}
 8000ed6:	bf00      	nop
 8000ed8:	3714      	adds	r7, #20
 8000eda:	46bd      	mov	sp, r7
 8000edc:	f85d 7b04 	ldr.w	r7, [sp], #4
 8000ee0:	4770      	bx	lr

08000ee2 <LL_GPIO_SetPinSpeed>:
{
 8000ee2:	b480      	push	{r7}
 8000ee4:	b089      	sub	sp, #36	; 0x24
 8000ee6:	af00      	add	r7, sp, #0
 8000ee8:	60f8      	str	r0, [r7, #12]
 8000eea:	60b9      	str	r1, [r7, #8]
 8000eec:	607a      	str	r2, [r7, #4]
  MODIFY_REG(GPIOx->OSPEEDR, (GPIO_OSPEEDER_OSPEEDR0 << (POSITION_VAL(Pin) * 2U)),
 8000eee:	68fb      	ldr	r3, [r7, #12]
 8000ef0:	689a      	ldr	r2, [r3, #8]
 8000ef2:	68bb      	ldr	r3, [r7, #8]
 8000ef4:	617b      	str	r3, [r7, #20]
   __ASM volatile ("rbit %0, %1" : "=r" (result) : "r" (value) );
 8000ef6:	697b      	ldr	r3, [r7, #20]
 8000ef8:	fa93 f3a3 	rbit	r3, r3
 8000efc:	613b      	str	r3, [r7, #16]
  return result;
 8000efe:	693b      	ldr	r3, [r7, #16]
 8000f00:	fab3 f383 	clz	r3, r3
 8000f04:	b2db      	uxtb	r3, r3
 8000f06:	005b      	lsls	r3, r3, #1
 8000f08:	2103      	movs	r1, #3
 8000f0a:	fa01 f303 	lsl.w	r3, r1, r3
 8000f0e:	43db      	mvns	r3, r3
 8000f10:	401a      	ands	r2, r3
 8000f12:	68bb      	ldr	r3, [r7, #8]
 8000f14:	61fb      	str	r3, [r7, #28]
   __ASM volatile ("rbit %0, %1" : "=r" (result) : "r" (value) );
 8000f16:	69fb      	ldr	r3, [r7, #28]
 8000f18:	fa93 f3a3 	rbit	r3, r3
 8000f1c:	61bb      	str	r3, [r7, #24]
  return result;
 8000f1e:	69bb      	ldr	r3, [r7, #24]
 8000f20:	fab3 f383 	clz	r3, r3
 8000f24:	b2db      	uxtb	r3, r3
 8000f26:	005b      	lsls	r3, r3, #1
 8000f28:	6879      	ldr	r1, [r7, #4]
 8000f2a:	fa01 f303 	lsl.w	r3, r1, r3
 8000f2e:	431a      	orrs	r2, r3
 8000f30:	68fb      	ldr	r3, [r7, #12]
 8000f32:	609a      	str	r2, [r3, #8]
}
 8000f34:	bf00      	nop
 8000f36:	3724      	adds	r7, #36	; 0x24
 8000f38:	46bd      	mov	sp, r7
 8000f3a:	f85d 7b04 	ldr.w	r7, [sp], #4
 8000f3e:	4770      	bx	lr

08000f40 <LL_GPIO_SetPinPull>:
{
 8000f40:	b480      	push	{r7}
 8000f42:	b089      	sub	sp, #36	; 0x24
 8000f44:	af00      	add	r7, sp, #0
 8000f46:	60f8      	str	r0, [r7, #12]
 8000f48:	60b9      	str	r1, [r7, #8]
 8000f4a:	607a      	str	r2, [r7, #4]
  MODIFY_REG(GPIOx->PUPDR, (GPIO_PUPDR_PUPDR0 << (POSITION_VAL(Pin) * 2U)), (Pull << (POSITION_VAL(Pin) * 2U)));
 8000f4c:	68fb      	ldr	r3, [r7, #12]
 8000f4e:	68da      	ldr	r2, [r3, #12]
 8000f50:	68bb      	ldr	r3, [r7, #8]
 8000f52:	617b      	str	r3, [r7, #20]
   __ASM volatile ("rbit %0, %1" : "=r" (result) : "r" (value) );
 8000f54:	697b      	ldr	r3, [r7, #20]
 8000f56:	fa93 f3a3 	rbit	r3, r3
 8000f5a:	613b      	str	r3, [r7, #16]
  return result;
 8000f5c:	693b      	ldr	r3, [r7, #16]
 8000f5e:	fab3 f383 	clz	r3, r3
 8000f62:	b2db      	uxtb	r3, r3
 8000f64:	005b      	lsls	r3, r3, #1
 8000f66:	2103      	movs	r1, #3
 8000f68:	fa01 f303 	lsl.w	r3, r1, r3
 8000f6c:	43db      	mvns	r3, r3
 8000f6e:	401a      	ands	r2, r3
 8000f70:	68bb      	ldr	r3, [r7, #8]
 8000f72:	61fb      	str	r3, [r7, #28]
   __ASM volatile ("rbit %0, %1" : "=r" (result) : "r" (value) );
 8000f74:	69fb      	ldr	r3, [r7, #28]
 8000f76:	fa93 f3a3 	rbit	r3, r3
 8000f7a:	61bb      	str	r3, [r7, #24]
  return result;
 8000f7c:	69bb      	ldr	r3, [r7, #24]
 8000f7e:	fab3 f383 	clz	r3, r3
 8000f82:	b2db      	uxtb	r3, r3
 8000f84:	005b      	lsls	r3, r3, #1
 8000f86:	6879      	ldr	r1, [r7, #4]
 8000f88:	fa01 f303 	lsl.w	r3, r1, r3
 8000f8c:	431a      	orrs	r2, r3
 8000f8e:	68fb      	ldr	r3, [r7, #12]
 8000f90:	60da      	str	r2, [r3, #12]
}
 8000f92:	bf00      	nop
 8000f94:	3724      	adds	r7, #36	; 0x24
 8000f96:	46bd      	mov	sp, r7
 8000f98:	f85d 7b04 	ldr.w	r7, [sp], #4
 8000f9c:	4770      	bx	lr

08000f9e <LL_GPIO_SetAFPin_0_7>:
{
 8000f9e:	b480      	push	{r7}
 8000fa0:	b089      	sub	sp, #36	; 0x24
 8000fa2:	af00      	add	r7, sp, #0
 8000fa4:	60f8      	str	r0, [r7, #12]
 8000fa6:	60b9      	str	r1, [r7, #8]
 8000fa8:	607a      	str	r2, [r7, #4]
  MODIFY_REG(GPIOx->AFR[0], (GPIO_AFRL_AFRL0 << (POSITION_VAL(Pin) * 4U)),
 8000faa:	68fb      	ldr	r3, [r7, #12]
 8000fac:	6a1a      	ldr	r2, [r3, #32]
 8000fae:	68bb      	ldr	r3, [r7, #8]
 8000fb0:	617b      	str	r3, [r7, #20]
   __ASM volatile ("rbit %0, %1" : "=r" (result) : "r" (value) );
 8000fb2:	697b      	ldr	r3, [r7, #20]
 8000fb4:	fa93 f3a3 	rbit	r3, r3
 8000fb8:	613b      	str	r3, [r7, #16]
  return result;
 8000fba:	693b      	ldr	r3, [r7, #16]
 8000fbc:	fab3 f383 	clz	r3, r3
 8000fc0:	b2db      	uxtb	r3, r3
 8000fc2:	009b      	lsls	r3, r3, #2
 8000fc4:	210f      	movs	r1, #15
 8000fc6:	fa01 f303 	lsl.w	r3, r1, r3
 8000fca:	43db      	mvns	r3, r3
 8000fcc:	401a      	ands	r2, r3
 8000fce:	68bb      	ldr	r3, [r7, #8]
 8000fd0:	61fb      	str	r3, [r7, #28]
   __ASM volatile ("rbit %0, %1" : "=r" (result) : "r" (value) );
 8000fd2:	69fb      	ldr	r3, [r7, #28]
 8000fd4:	fa93 f3a3 	rbit	r3, r3
 8000fd8:	61bb      	str	r3, [r7, #24]
  return result;
 8000fda:	69bb      	ldr	r3, [r7, #24]
 8000fdc:	fab3 f383 	clz	r3, r3
 8000fe0:	b2db      	uxtb	r3, r3
 8000fe2:	009b      	lsls	r3, r3, #2
 8000fe4:	6879      	ldr	r1, [r7, #4]
 8000fe6:	fa01 f303 	lsl.w	r3, r1, r3
 8000fea:	431a      	orrs	r2, r3
 8000fec:	68fb      	ldr	r3, [r7, #12]
 8000fee:	621a      	str	r2, [r3, #32]
}
 8000ff0:	bf00      	nop
 8000ff2:	3724      	adds	r7, #36	; 0x24
 8000ff4:	46bd      	mov	sp, r7
 8000ff6:	f85d 7b04 	ldr.w	r7, [sp], #4
 8000ffa:	4770      	bx	lr

08000ffc <LL_GPIO_SetAFPin_8_15>:
{
 8000ffc:	b480      	push	{r7}
 8000ffe:	b089      	sub	sp, #36	; 0x24
 8001000:	af00      	add	r7, sp, #0
 8001002:	60f8      	str	r0, [r7, #12]
 8001004:	60b9      	str	r1, [r7, #8]
 8001006:	607a      	str	r2, [r7, #4]
  MODIFY_REG(GPIOx->AFR[1], (GPIO_AFRH_AFRH0 << (POSITION_VAL(Pin >> 8U) * 4U)),
 8001008:	68fb      	ldr	r3, [r7, #12]
 800100a:	6a5a      	ldr	r2, [r3, #36]	; 0x24
 800100c:	68bb      	ldr	r3, [r7, #8]
 800100e:	0a1b      	lsrs	r3, r3, #8
 8001010:	617b      	str	r3, [r7, #20]
   __ASM volatile ("rbit %0, %1" : "=r" (result) : "r" (value) );
 8001012:	697b      	ldr	r3, [r7, #20]
 8001014:	fa93 f3a3 	rbit	r3, r3
 8001018:	613b      	str	r3, [r7, #16]
  return result;
 800101a:	693b      	ldr	r3, [r7, #16]
 800101c:	fab3 f383 	clz	r3, r3
 8001020:	b2db      	uxtb	r3, r3
 8001022:	009b      	lsls	r3, r3, #2
 8001024:	210f      	movs	r1, #15
 8001026:	fa01 f303 	lsl.w	r3, r1, r3
 800102a:	43db      	mvns	r3, r3
 800102c:	401a      	ands	r2, r3
 800102e:	68bb      	ldr	r3, [r7, #8]
 8001030:	0a1b      	lsrs	r3, r3, #8
 8001032:	61fb      	str	r3, [r7, #28]
   __ASM volatile ("rbit %0, %1" : "=r" (result) : "r" (value) );
 8001034:	69fb      	ldr	r3, [r7, #28]
 8001036:	fa93 f3a3 	rbit	r3, r3
 800103a:	61bb      	str	r3, [r7, #24]
  return result;
 800103c:	69bb      	ldr	r3, [r7, #24]
 800103e:	fab3 f383 	clz	r3, r3
 8001042:	b2db      	uxtb	r3, r3
 8001044:	009b      	lsls	r3, r3, #2
 8001046:	6879      	ldr	r1, [r7, #4]
 8001048:	fa01 f303 	lsl.w	r3, r1, r3
 800104c:	431a      	orrs	r2, r3
 800104e:	68fb      	ldr	r3, [r7, #12]
 8001050:	625a      	str	r2, [r3, #36]	; 0x24
}
 8001052:	bf00      	nop
 8001054:	3724      	adds	r7, #36	; 0x24
 8001056:	46bd      	mov	sp, r7
 8001058:	f85d 7b04 	ldr.w	r7, [sp], #4
 800105c:	4770      	bx	lr

0800105e <LL_GPIO_Init>:
  * @retval An ErrorStatus enumeration value:
  *          - SUCCESS: GPIO registers are initialized according to GPIO_InitStruct content
  *          - ERROR:   Not applicable
  */
ErrorStatus LL_GPIO_Init(GPIO_TypeDef *GPIOx, LL_GPIO_InitTypeDef *GPIO_InitStruct)
{
 800105e:	b580      	push	{r7, lr}
 8001060:	b088      	sub	sp, #32
 8001062:	af00      	add	r7, sp, #0
 8001064:	6078      	str	r0, [r7, #4]
 8001066:	6039      	str	r1, [r7, #0]
  assert_param(IS_LL_GPIO_MODE(GPIO_InitStruct->Mode));
  assert_param(IS_LL_GPIO_PULL(GPIO_InitStruct->Pull));

  /* ------------------------- Configure the port pins ---------------- */
  /* Initialize  pinpos on first pin set */
  pinpos = POSITION_VAL(GPIO_InitStruct->Pin);
 8001068:	683b      	ldr	r3, [r7, #0]
 800106a:	681b      	ldr	r3, [r3, #0]
 800106c:	617b      	str	r3, [r7, #20]
   __ASM volatile ("rbit %0, %1" : "=r" (result) : "r" (value) );
 800106e:	697b      	ldr	r3, [r7, #20]
 8001070:	fa93 f3a3 	rbit	r3, r3
 8001074:	613b      	str	r3, [r7, #16]
  return result;
 8001076:	693b      	ldr	r3, [r7, #16]
 8001078:	fab3 f383 	clz	r3, r3
 800107c:	b2db      	uxtb	r3, r3
 800107e:	61fb      	str	r3, [r7, #28]

  /* Configure the port pins */
  while (((GPIO_InitStruct->Pin) >> pinpos) != 0x00u)
 8001080:	e051      	b.n	8001126 <LL_GPIO_Init+0xc8>
  {
    /* Get current io position */
    currentpin = (GPIO_InitStruct->Pin) & (0x00000001uL << pinpos);
 8001082:	683b      	ldr	r3, [r7, #0]
 8001084:	681a      	ldr	r2, [r3, #0]
 8001086:	2101      	movs	r1, #1
 8001088:	69fb      	ldr	r3, [r7, #28]
 800108a:	fa01 f303 	lsl.w	r3, r1, r3
 800108e:	4013      	ands	r3, r2
 8001090:	61bb      	str	r3, [r7, #24]

    if (currentpin != 0x00u)
 8001092:	69bb      	ldr	r3, [r7, #24]
 8001094:	2b00      	cmp	r3, #0
 8001096:	d043      	beq.n	8001120 <LL_GPIO_Init+0xc2>
    {
      if ((GPIO_InitStruct->Mode == LL_GPIO_MODE_OUTPUT) || (GPIO_InitStruct->Mode == LL_GPIO_MODE_ALTERNATE))
 8001098:	683b      	ldr	r3, [r7, #0]
 800109a:	685b      	ldr	r3, [r3, #4]
 800109c:	2b01      	cmp	r3, #1
 800109e:	d003      	beq.n	80010a8 <LL_GPIO_Init+0x4a>
 80010a0:	683b      	ldr	r3, [r7, #0]
 80010a2:	685b      	ldr	r3, [r3, #4]
 80010a4:	2b02      	cmp	r3, #2
 80010a6:	d10e      	bne.n	80010c6 <LL_GPIO_Init+0x68>
      {
        /* Check Speed mode parameters */
        assert_param(IS_LL_GPIO_SPEED(GPIO_InitStruct->Speed));

        /* Speed mode configuration */
        LL_GPIO_SetPinSpeed(GPIOx, currentpin, GPIO_InitStruct->Speed);
 80010a8:	683b      	ldr	r3, [r7, #0]
 80010aa:	689b      	ldr	r3, [r3, #8]
 80010ac:	461a      	mov	r2, r3
 80010ae:	69b9      	ldr	r1, [r7, #24]
 80010b0:	6878      	ldr	r0, [r7, #4]
 80010b2:	f7ff ff16 	bl	8000ee2 <LL_GPIO_SetPinSpeed>

        /* Check Output mode parameters */
        assert_param(IS_LL_GPIO_OUTPUT_TYPE(GPIO_InitStruct->OutputType));

        /* Output mode configuration*/
        LL_GPIO_SetPinOutputType(GPIOx, GPIO_InitStruct->Pin, GPIO_InitStruct->OutputType);
 80010b6:	683b      	ldr	r3, [r7, #0]
 80010b8:	6819      	ldr	r1, [r3, #0]
 80010ba:	683b      	ldr	r3, [r7, #0]
 80010bc:	68db      	ldr	r3, [r3, #12]
 80010be:	461a      	mov	r2, r3
 80010c0:	6878      	ldr	r0, [r7, #4]
 80010c2:	f7ff fef6 	bl	8000eb2 <LL_GPIO_SetPinOutputType>
      }

      /* Pull-up Pull down resistor configuration*/
      LL_GPIO_SetPinPull(GPIOx, currentpin, GPIO_InitStruct->Pull);
 80010c6:	683b      	ldr	r3, [r7, #0]
 80010c8:	691b      	ldr	r3, [r3, #16]
 80010ca:	461a      	mov	r2, r3
 80010cc:	69b9      	ldr	r1, [r7, #24]
 80010ce:	6878      	ldr	r0, [r7, #4]
 80010d0:	f7ff ff36 	bl	8000f40 <LL_GPIO_SetPinPull>

      if (GPIO_InitStruct->Mode == LL_GPIO_MODE_ALTERNATE)
 80010d4:	683b      	ldr	r3, [r7, #0]
 80010d6:	685b      	ldr	r3, [r3, #4]
 80010d8:	2b02      	cmp	r3, #2
 80010da:	d11a      	bne.n	8001112 <LL_GPIO_Init+0xb4>
 80010dc:	69bb      	ldr	r3, [r7, #24]
 80010de:	60fb      	str	r3, [r7, #12]
   __ASM volatile ("rbit %0, %1" : "=r" (result) : "r" (value) );
 80010e0:	68fb      	ldr	r3, [r7, #12]
 80010e2:	fa93 f3a3 	rbit	r3, r3
 80010e6:	60bb      	str	r3, [r7, #8]
  return result;
 80010e8:	68bb      	ldr	r3, [r7, #8]
      {
        /* Check Alternate parameter */
        assert_param(IS_LL_GPIO_ALTERNATE(GPIO_InitStruct->Alternate));

        /* Speed mode configuration */
        if (POSITION_VAL(currentpin) < 0x00000008U)
 80010ea:	fab3 f383 	clz	r3, r3
 80010ee:	b2db      	uxtb	r3, r3
 80010f0:	2b07      	cmp	r3, #7
 80010f2:	d807      	bhi.n	8001104 <LL_GPIO_Init+0xa6>
        {
          LL_GPIO_SetAFPin_0_7(GPIOx, currentpin, GPIO_InitStruct->Alternate);
 80010f4:	683b      	ldr	r3, [r7, #0]
 80010f6:	695b      	ldr	r3, [r3, #20]
 80010f8:	461a      	mov	r2, r3
 80010fa:	69b9      	ldr	r1, [r7, #24]
 80010fc:	6878      	ldr	r0, [r7, #4]
 80010fe:	f7ff ff4e 	bl	8000f9e <LL_GPIO_SetAFPin_0_7>
 8001102:	e006      	b.n	8001112 <LL_GPIO_Init+0xb4>
        }
        else
        {
          LL_GPIO_SetAFPin_8_15(GPIOx, currentpin, GPIO_InitStruct->Alternate);
 8001104:	683b      	ldr	r3, [r7, #0]
 8001106:	695b      	ldr	r3, [r3, #20]
 8001108:	461a      	mov	r2, r3
 800110a:	69b9      	ldr	r1, [r7, #24]
 800110c:	6878      	ldr	r0, [r7, #4]
 800110e:	f7ff ff75 	bl	8000ffc <LL_GPIO_SetAFPin_8_15>
        }
      }

      /* Pin Mode configuration */
      LL_GPIO_SetPinMode(GPIOx, currentpin, GPIO_InitStruct->Mode);
 8001112:	683b      	ldr	r3, [r7, #0]
 8001114:	685b      	ldr	r3, [r3, #4]
 8001116:	461a      	mov	r2, r3
 8001118:	69b9      	ldr	r1, [r7, #24]
 800111a:	6878      	ldr	r0, [r7, #4]
 800111c:	f7ff fe9a 	bl	8000e54 <LL_GPIO_SetPinMode>
    }
    pinpos++;
 8001120:	69fb      	ldr	r3, [r7, #28]
 8001122:	3301      	adds	r3, #1
 8001124:	61fb      	str	r3, [r7, #28]
  while (((GPIO_InitStruct->Pin) >> pinpos) != 0x00u)
 8001126:	683b      	ldr	r3, [r7, #0]
 8001128:	681a      	ldr	r2, [r3, #0]
 800112a:	69fb      	ldr	r3, [r7, #28]
 800112c:	fa22 f303 	lsr.w	r3, r2, r3
 8001130:	2b00      	cmp	r3, #0
 8001132:	d1a6      	bne.n	8001082 <LL_GPIO_Init+0x24>
  }

  return (SUCCESS);
 8001134:	2300      	movs	r3, #0
}
 8001136:	4618      	mov	r0, r3
 8001138:	3720      	adds	r7, #32
 800113a:	46bd      	mov	sp, r7
 800113c:	bd80      	pop	{r7, pc}
	...

08001140 <LL_InitTick>:
  *         configuration by calling this function, for a delay use rather osDelay RTOS service.
  * @param  Ticks Number of ticks
  * @retval None
  */
__STATIC_INLINE void LL_InitTick(uint32_t HCLKFrequency, uint32_t Ticks)
{
 8001140:	b480      	push	{r7}
 8001142:	b083      	sub	sp, #12
 8001144:	af00      	add	r7, sp, #0
 8001146:	6078      	str	r0, [r7, #4]
 8001148:	6039      	str	r1, [r7, #0]
  /* Configure the SysTick to have interrupt in 1ms time base */
  SysTick->LOAD  = (uint32_t)((HCLKFrequency / Ticks) - 1UL);  /* set reload register */
 800114a:	687a      	ldr	r2, [r7, #4]
 800114c:	683b      	ldr	r3, [r7, #0]
 800114e:	fbb2 f3f3 	udiv	r3, r2, r3
 8001152:	4a07      	ldr	r2, [pc, #28]	; (8001170 <LL_InitTick+0x30>)
 8001154:	3b01      	subs	r3, #1
 8001156:	6053      	str	r3, [r2, #4]
  SysTick->VAL   = 0UL;                                       /* Load the SysTick Counter Value */
 8001158:	4b05      	ldr	r3, [pc, #20]	; (8001170 <LL_InitTick+0x30>)
 800115a:	2200      	movs	r2, #0
 800115c:	609a      	str	r2, [r3, #8]
  SysTick->CTRL  = SysTick_CTRL_CLKSOURCE_Msk |
 800115e:	4b04      	ldr	r3, [pc, #16]	; (8001170 <LL_InitTick+0x30>)
 8001160:	2205      	movs	r2, #5
 8001162:	601a      	str	r2, [r3, #0]
                   SysTick_CTRL_ENABLE_Msk;                   /* Enable the Systick Timer */
}
 8001164:	bf00      	nop
 8001166:	370c      	adds	r7, #12
 8001168:	46bd      	mov	sp, r7
 800116a:	f85d 7b04 	ldr.w	r7, [sp], #4
 800116e:	4770      	bx	lr
 8001170:	e000e010 	.word	0xe000e010

08001174 <LL_Init1msTick>:
  * @param  HCLKFrequency HCLK frequency in Hz
  * @note   HCLK frequency can be calculated thanks to RCC helper macro or function @ref LL_RCC_GetSystemClocksFreq
  * @retval None
  */
void LL_Init1msTick(uint32_t HCLKFrequency)
{
 8001174:	b580      	push	{r7, lr}
 8001176:	b082      	sub	sp, #8
 8001178:	af00      	add	r7, sp, #0
 800117a:	6078      	str	r0, [r7, #4]
  /* Use frequency provided in argument */
  LL_InitTick(HCLKFrequency, 1000U);
 800117c:	f44f 717a 	mov.w	r1, #1000	; 0x3e8
 8001180:	6878      	ldr	r0, [r7, #4]
 8001182:	f7ff ffdd 	bl	8001140 <LL_InitTick>
}
 8001186:	bf00      	nop
 8001188:	3708      	adds	r7, #8
 800118a:	46bd      	mov	sp, r7
 800118c:	bd80      	pop	{r7, pc}
	...

08001190 <LL_mDelay>:
  *         will configure Systick to 1ms
  * @param  Delay specifies the delay time length, in milliseconds.
  * @retval None
  */
void LL_mDelay(uint32_t Delay)
{
 8001190:	b480      	push	{r7}
 8001192:	b085      	sub	sp, #20
 8001194:	af00      	add	r7, sp, #0
 8001196:	6078      	str	r0, [r7, #4]
  __IO uint32_t  tmp = SysTick->CTRL;  /* Clear the COUNTFLAG first */
 8001198:	4b0e      	ldr	r3, [pc, #56]	; (80011d4 <LL_mDelay+0x44>)
 800119a:	681b      	ldr	r3, [r3, #0]
 800119c:	60fb      	str	r3, [r7, #12]
  /* Add this code to indicate that local variable is not used */
  ((void)tmp);
 800119e:	68fb      	ldr	r3, [r7, #12]

  /* Add a period to guaranty minimum wait */
  if (Delay < LL_MAX_DELAY)
 80011a0:	687b      	ldr	r3, [r7, #4]
 80011a2:	f1b3 3fff 	cmp.w	r3, #4294967295
 80011a6:	d00c      	beq.n	80011c2 <LL_mDelay+0x32>
  {
    Delay++;
 80011a8:	687b      	ldr	r3, [r7, #4]
 80011aa:	3301      	adds	r3, #1
 80011ac:	607b      	str	r3, [r7, #4]
  }

  while (Delay)
 80011ae:	e008      	b.n	80011c2 <LL_mDelay+0x32>
  {
    if ((SysTick->CTRL & SysTick_CTRL_COUNTFLAG_Msk) != 0U)
 80011b0:	4b08      	ldr	r3, [pc, #32]	; (80011d4 <LL_mDelay+0x44>)
 80011b2:	681b      	ldr	r3, [r3, #0]
 80011b4:	f403 3380 	and.w	r3, r3, #65536	; 0x10000
 80011b8:	2b00      	cmp	r3, #0
 80011ba:	d002      	beq.n	80011c2 <LL_mDelay+0x32>
    {
      Delay--;
 80011bc:	687b      	ldr	r3, [r7, #4]
 80011be:	3b01      	subs	r3, #1
 80011c0:	607b      	str	r3, [r7, #4]
  while (Delay)
 80011c2:	687b      	ldr	r3, [r7, #4]
 80011c4:	2b00      	cmp	r3, #0
 80011c6:	d1f3      	bne.n	80011b0 <LL_mDelay+0x20>
    }
  }
}
 80011c8:	bf00      	nop
 80011ca:	3714      	adds	r7, #20
 80011cc:	46bd      	mov	sp, r7
 80011ce:	f85d 7b04 	ldr.w	r7, [sp], #4
 80011d2:	4770      	bx	lr
 80011d4:	e000e010 	.word	0xe000e010

080011d8 <LL_SetSystemCoreClock>:
  * @note   Variable can be calculated also through SystemCoreClockUpdate function.
  * @param  HCLKFrequency HCLK frequency in Hz (can be calculated thanks to RCC helper macro)
  * @retval None
  */
void LL_SetSystemCoreClock(uint32_t HCLKFrequency)
{
 80011d8:	b480      	push	{r7}
 80011da:	b083      	sub	sp, #12
 80011dc:	af00      	add	r7, sp, #0
 80011de:	6078      	str	r0, [r7, #4]
  /* HCLK clock frequency */
  SystemCoreClock = HCLKFrequency;
 80011e0:	4a04      	ldr	r2, [pc, #16]	; (80011f4 <LL_SetSystemCoreClock+0x1c>)
 80011e2:	687b      	ldr	r3, [r7, #4]
 80011e4:	6013      	str	r3, [r2, #0]
}
 80011e6:	bf00      	nop
 80011e8:	370c      	adds	r7, #12
 80011ea:	46bd      	mov	sp, r7
 80011ec:	f85d 7b04 	ldr.w	r7, [sp], #4
 80011f0:	4770      	bx	lr
 80011f2:	bf00      	nop
 80011f4:	20000000 	.word	0x20000000

080011f8 <__libc_init_array>:
 80011f8:	b570      	push	{r4, r5, r6, lr}
 80011fa:	4e0d      	ldr	r6, [pc, #52]	; (8001230 <__libc_init_array+0x38>)
 80011fc:	4c0d      	ldr	r4, [pc, #52]	; (8001234 <__libc_init_array+0x3c>)
 80011fe:	1ba4      	subs	r4, r4, r6
 8001200:	10a4      	asrs	r4, r4, #2
 8001202:	2500      	movs	r5, #0
 8001204:	42a5      	cmp	r5, r4
 8001206:	d109      	bne.n	800121c <__libc_init_array+0x24>
 8001208:	4e0b      	ldr	r6, [pc, #44]	; (8001238 <__libc_init_array+0x40>)
 800120a:	4c0c      	ldr	r4, [pc, #48]	; (800123c <__libc_init_array+0x44>)
 800120c:	f000 f818 	bl	8001240 <_init>
 8001210:	1ba4      	subs	r4, r4, r6
 8001212:	10a4      	asrs	r4, r4, #2
 8001214:	2500      	movs	r5, #0
 8001216:	42a5      	cmp	r5, r4
 8001218:	d105      	bne.n	8001226 <__libc_init_array+0x2e>
 800121a:	bd70      	pop	{r4, r5, r6, pc}
 800121c:	f856 3025 	ldr.w	r3, [r6, r5, lsl #2]
 8001220:	4798      	blx	r3
 8001222:	3501      	adds	r5, #1
 8001224:	e7ee      	b.n	8001204 <__libc_init_array+0xc>
 8001226:	f856 3025 	ldr.w	r3, [r6, r5, lsl #2]
 800122a:	4798      	blx	r3
 800122c:	3501      	adds	r5, #1
 800122e:	e7f2      	b.n	8001216 <__libc_init_array+0x1e>
 8001230:	08001258 	.word	0x08001258
 8001234:	08001258 	.word	0x08001258
 8001238:	08001258 	.word	0x08001258
 800123c:	0800125c 	.word	0x0800125c

08001240 <_init>:
 8001240:	b5f8      	push	{r3, r4, r5, r6, r7, lr}
 8001242:	bf00      	nop
 8001244:	bcf8      	pop	{r3, r4, r5, r6, r7}
 8001246:	bc08      	pop	{r3}
 8001248:	469e      	mov	lr, r3
 800124a:	4770      	bx	lr

0800124c <_fini>:
 800124c:	b5f8      	push	{r3, r4, r5, r6, r7, lr}
 800124e:	bf00      	nop
 8001250:	bcf8      	pop	{r3, r4, r5, r6, r7}
 8001252:	bc08      	pop	{r3}
 8001254:	469e      	mov	lr, r3
 8001256:	4770      	bx	lr
